
/home/eco/dev/ch_test/.pio/build/genericCH32V203K8T6/firmware.elf:     file format elf32-littleriscv


Disassembly of section .init:

00000000 <_sinit>:

	.section	.init,"ax",@progbits
	.global	_start
	.align	1
_start:
	j	handle_reset
   0:	20a0006f          	j	20a <handle_reset>

Disassembly of section .vector:

00000004 <_vector_base>:
	...
   c:	0208                	addi	a0,sp,256
   e:	0000                	unimp
  10:	0208                	addi	a0,sp,256
  12:	0000                	unimp
  14:	0000                	unimp
  16:	0000                	unimp
  18:	0208                	addi	a0,sp,256
	...
  22:	0000                	unimp
  24:	0208                	addi	a0,sp,256
  26:	0000                	unimp
  28:	0208                	addi	a0,sp,256
	...
  32:	0000                	unimp
  34:	0208                	addi	a0,sp,256
  36:	0000                	unimp
  38:	0000                	unimp
  3a:	0000                	unimp
  3c:	0208                	addi	a0,sp,256
  3e:	0000                	unimp
  40:	0000                	unimp
  42:	0000                	unimp
  44:	0208                	addi	a0,sp,256
  46:	0000                	unimp
  48:	0208                	addi	a0,sp,256
  4a:	0000                	unimp
  4c:	0208                	addi	a0,sp,256
  4e:	0000                	unimp
  50:	0208                	addi	a0,sp,256
  52:	0000                	unimp
  54:	0208                	addi	a0,sp,256
  56:	0000                	unimp
  58:	0208                	addi	a0,sp,256
  5a:	0000                	unimp
  5c:	0208                	addi	a0,sp,256
  5e:	0000                	unimp
  60:	0208                	addi	a0,sp,256
  62:	0000                	unimp
  64:	0208                	addi	a0,sp,256
  66:	0000                	unimp
  68:	0208                	addi	a0,sp,256
  6a:	0000                	unimp
  6c:	0208                	addi	a0,sp,256
  6e:	0000                	unimp
  70:	0208                	addi	a0,sp,256
  72:	0000                	unimp
  74:	0208                	addi	a0,sp,256
  76:	0000                	unimp
  78:	0208                	addi	a0,sp,256
  7a:	0000                	unimp
  7c:	0208                	addi	a0,sp,256
  7e:	0000                	unimp
  80:	0208                	addi	a0,sp,256
  82:	0000                	unimp
  84:	0208                	addi	a0,sp,256
  86:	0000                	unimp
  88:	0208                	addi	a0,sp,256
  8a:	0000                	unimp
  8c:	0208                	addi	a0,sp,256
  8e:	0000                	unimp
  90:	0208                	addi	a0,sp,256
  92:	0000                	unimp
  94:	0208                	addi	a0,sp,256
  96:	0000                	unimp
  98:	0208                	addi	a0,sp,256
  9a:	0000                	unimp
  9c:	0208                	addi	a0,sp,256
  9e:	0000                	unimp
  a0:	0208                	addi	a0,sp,256
  a2:	0000                	unimp
  a4:	0208                	addi	a0,sp,256
  a6:	0000                	unimp
  a8:	0208                	addi	a0,sp,256
  aa:	0000                	unimp
  ac:	0208                	addi	a0,sp,256
  ae:	0000                	unimp
  b0:	0208                	addi	a0,sp,256
  b2:	0000                	unimp
  b4:	0208                	addi	a0,sp,256
  b6:	0000                	unimp
  b8:	0208                	addi	a0,sp,256
  ba:	0000                	unimp
  bc:	0208                	addi	a0,sp,256
  be:	0000                	unimp
  c0:	0208                	addi	a0,sp,256
  c2:	0000                	unimp
  c4:	0208                	addi	a0,sp,256
  c6:	0000                	unimp
  c8:	0208                	addi	a0,sp,256
  ca:	0000                	unimp
  cc:	0208                	addi	a0,sp,256
  ce:	0000                	unimp
  d0:	0208                	addi	a0,sp,256
  d2:	0000                	unimp
  d4:	0208                	addi	a0,sp,256
  d6:	0000                	unimp
  d8:	0208                	addi	a0,sp,256
  da:	0000                	unimp
  dc:	0208                	addi	a0,sp,256
  de:	0000                	unimp
  e0:	0208                	addi	a0,sp,256
  e2:	0000                	unimp
  e4:	0208                	addi	a0,sp,256
  e6:	0000                	unimp
  e8:	0208                	addi	a0,sp,256
  ea:	0000                	unimp
  ec:	0208                	addi	a0,sp,256
  ee:	0000                	unimp
  f0:	0208                	addi	a0,sp,256
  f2:	0000                	unimp
  f4:	0208                	addi	a0,sp,256
  f6:	0000                	unimp
  f8:	0208                	addi	a0,sp,256
  fa:	0000                	unimp
  fc:	0208                	addi	a0,sp,256
	...

Disassembly of section .text:

00000100 <__riscv_save_12>:
     100:	7139                	addi	sp,sp,-64
     102:	4301                	li	t1,0
     104:	c66e                	sw	s11,12(sp)
     106:	a019                	j	10c <__riscv_save_10+0x4>

00000108 <__riscv_save_10>:
     108:	7139                	addi	sp,sp,-64
     10a:	5341                	li	t1,-16
     10c:	c86a                	sw	s10,16(sp)
     10e:	ca66                	sw	s9,20(sp)
     110:	cc62                	sw	s8,24(sp)
     112:	ce5e                	sw	s7,28(sp)
     114:	a019                	j	11a <__riscv_save_4+0x4>

00000116 <__riscv_save_4>:
     116:	7139                	addi	sp,sp,-64
     118:	5301                	li	t1,-32
     11a:	d05a                	sw	s6,32(sp)
     11c:	d256                	sw	s5,36(sp)
     11e:	d452                	sw	s4,40(sp)
     120:	d64e                	sw	s3,44(sp)
     122:	d84a                	sw	s2,48(sp)
     124:	da26                	sw	s1,52(sp)
     126:	dc22                	sw	s0,56(sp)
     128:	de06                	sw	ra,60(sp)
     12a:	40610133          	sub	sp,sp,t1
     12e:	8282                	jr	t0

00000130 <__riscv_save_0>:
     130:	1141                	addi	sp,sp,-16
     132:	c04a                	sw	s2,0(sp)
     134:	c226                	sw	s1,4(sp)
     136:	c422                	sw	s0,8(sp)
     138:	c606                	sw	ra,12(sp)
     13a:	8282                	jr	t0

0000013c <__riscv_restore_12>:
     13c:	4db2                	lw	s11,12(sp)
     13e:	0141                	addi	sp,sp,16

00000140 <__riscv_restore_10>:
     140:	4d02                	lw	s10,0(sp)
     142:	4c92                	lw	s9,4(sp)
     144:	4c22                	lw	s8,8(sp)
     146:	4bb2                	lw	s7,12(sp)
     148:	0141                	addi	sp,sp,16

0000014a <__riscv_restore_4>:
     14a:	4b02                	lw	s6,0(sp)
     14c:	4a92                	lw	s5,4(sp)
     14e:	4a22                	lw	s4,8(sp)
     150:	49b2                	lw	s3,12(sp)
     152:	0141                	addi	sp,sp,16

00000154 <__riscv_restore_0>:
     154:	4902                	lw	s2,0(sp)
     156:	4492                	lw	s1,4(sp)
     158:	4422                	lw	s0,8(sp)
     15a:	40b2                	lw	ra,12(sp)
     15c:	0141                	addi	sp,sp,16
     15e:	8082                	ret

00000160 <memset>:
     160:	433d                	li	t1,15
     162:	872a                	mv	a4,a0
     164:	02c37363          	bgeu	t1,a2,18a <memset+0x2a>
     168:	00f77793          	andi	a5,a4,15
     16c:	efbd                	bnez	a5,1ea <memset+0x8a>
     16e:	e5ad                	bnez	a1,1d8 <memset+0x78>
     170:	ff067693          	andi	a3,a2,-16
     174:	8a3d                	andi	a2,a2,15
     176:	96ba                	add	a3,a3,a4
     178:	c30c                	sw	a1,0(a4)
     17a:	c34c                	sw	a1,4(a4)
     17c:	c70c                	sw	a1,8(a4)
     17e:	c74c                	sw	a1,12(a4)
     180:	0741                	addi	a4,a4,16
     182:	fed76be3          	bltu	a4,a3,178 <memset+0x18>
     186:	e211                	bnez	a2,18a <memset+0x2a>
     188:	8082                	ret
     18a:	40c306b3          	sub	a3,t1,a2
     18e:	068a                	slli	a3,a3,0x2
     190:	00000297          	auipc	t0,0x0
     194:	9696                	add	a3,a3,t0
     196:	00a68067          	jr	10(a3)
     19a:	00b70723          	sb	a1,14(a4)
     19e:	00b706a3          	sb	a1,13(a4)
     1a2:	00b70623          	sb	a1,12(a4)
     1a6:	00b705a3          	sb	a1,11(a4)
     1aa:	00b70523          	sb	a1,10(a4)
     1ae:	00b704a3          	sb	a1,9(a4)
     1b2:	00b70423          	sb	a1,8(a4)
     1b6:	00b703a3          	sb	a1,7(a4)
     1ba:	00b70323          	sb	a1,6(a4)
     1be:	00b702a3          	sb	a1,5(a4)
     1c2:	00b70223          	sb	a1,4(a4)
     1c6:	00b701a3          	sb	a1,3(a4)
     1ca:	00b70123          	sb	a1,2(a4)
     1ce:	00b700a3          	sb	a1,1(a4)
     1d2:	00b70023          	sb	a1,0(a4)
     1d6:	8082                	ret
     1d8:	0ff5f593          	andi	a1,a1,255
     1dc:	00859693          	slli	a3,a1,0x8
     1e0:	8dd5                	or	a1,a1,a3
     1e2:	01059693          	slli	a3,a1,0x10
     1e6:	8dd5                	or	a1,a1,a3
     1e8:	b761                	j	170 <memset+0x10>
     1ea:	00279693          	slli	a3,a5,0x2
     1ee:	00000297          	auipc	t0,0x0
     1f2:	9696                	add	a3,a3,t0
     1f4:	8286                	mv	t0,ra
     1f6:	fa8680e7          	jalr	-88(a3)
     1fa:	8096                	mv	ra,t0
     1fc:	17c1                	addi	a5,a5,-16
     1fe:	8f1d                	sub	a4,a4,a5
     200:	963e                	add	a2,a2,a5
     202:	f8c374e3          	bgeu	t1,a2,18a <memset+0x2a>
     206:	b7a5                	j	16e <memset+0xe>

00000208 <ADC1_2_IRQHandler>:
USBFS_IRQHandler:
USBFSWakeUp_IRQHandler:
UART4_IRQHandler:
DMA1_Channel8_IRQHandler:
1:
	j 1b
     208:	a001                	j	208 <ADC1_2_IRQHandler>

0000020a <handle_reset>:
	.weak	handle_reset
	.align	1
handle_reset:
.option push 
.option	norelax 
	la gp, __global_pointer$
     20a:	20000197          	auipc	gp,0x20000
     20e:	67618193          	addi	gp,gp,1654 # 20000880 <__global_pointer$>
.option	pop 
1:
	la sp, _eusrstack 
     212:	20005117          	auipc	sp,0x20005
     216:	dee10113          	addi	sp,sp,-530 # 20005000 <__freertos_irq_stack_top>
2:
/* Load data section from flash to RAM */
	la a0, _data_lma
     21a:	00002517          	auipc	a0,0x2
     21e:	89650513          	addi	a0,a0,-1898 # 1ab0 <__fsymtab_end>
	la a1, _data_vma
     222:	20000597          	auipc	a1,0x20000
     226:	dde58593          	addi	a1,a1,-546 # 20000000 <_data_vma>
	la a2, _edata
     22a:	81818613          	addi	a2,gp,-2024 # 20000098 <_edata>
	bgeu a1, a2, 2f
     22e:	00c5fa63          	bgeu	a1,a2,242 <handle_reset+0x38>
1:
	lw t0, (a0)
     232:	00052283          	lw	t0,0(a0)
	sw t0, (a1)
     236:	0055a023          	sw	t0,0(a1)
	addi a0, a0, 4
     23a:	0511                	addi	a0,a0,4
	addi a1, a1, 4
     23c:	0591                	addi	a1,a1,4
	bltu a1, a2, 1b
     23e:	fec5eae3          	bltu	a1,a2,232 <handle_reset+0x28>
2:
/* Clear bss section */
	la a0, _sbss
     242:	81818513          	addi	a0,gp,-2024 # 20000098 <_edata>
	la a1, _ebss
     246:	82c18593          	addi	a1,gp,-2004 # 200000ac <_ebss>
	bgeu a0, a1, 2f
     24a:	00b57763          	bgeu	a0,a1,258 <handle_reset+0x4e>
1:
	sw zero, (a0)
     24e:	00052023          	sw	zero,0(a0)
	addi a0, a0, 4
     252:	0511                	addi	a0,a0,4
	bltu a0, a1, 1b
     254:	feb56de3          	bltu	a0,a1,24e <handle_reset+0x44>
2:
/* Configure pipelining and instruction prediction */
    li t0, 0x1f
     258:	42fd                	li	t0,31
    csrw 0xbc0, t0
     25a:	bc029073          	csrw	0xbc0,t0
    /* Enable interrupt */
    li t0, 0x1800
    csrw mstatus, t0
    #else
    /* Enable nested and hardware stack */
    li t0, 0x3
     25e:	428d                	li	t0,3
    csrw 0x804, t0
     260:	80429073          	csrw	0x804,t0

    /* Enable interrupt */
    li t0, 0x88           
     264:	08800293          	li	t0,136
    csrw mstatus, t0
     268:	30029073          	csrw	mstatus,t0
    #endif

/* Configure the interrupt vector table recognition mode and entry address mode */
 	la t0, _vector_base
     26c:	00000297          	auipc	t0,0x0
     270:	d9828293          	addi	t0,t0,-616 # 4 <_einit>
    ori t0, t0, 3           
     274:	0032e293          	ori	t0,t0,3
    csrw mtvec, t0
     278:	30529073          	csrw	mtvec,t0
    #if defined(__PIO_CPP_CALL_FINI__)
    la a0,__libc_fini_array
    call atexit
    #endif
    /* call into C++ constructors now */
    call __libc_init_array
     27c:	2381                	jal	7bc <__libc_init_array>
    #endif

    jal  SystemInit
     27e:	014000ef          	jal	ra,292 <SystemInit>
    #if defined(__PIO_BUILD_RT_THREAD__)
    /* RT-Thread has special entry point, it will call our main() later */
    la t0, entry
    #else
    la t0, main
     282:	00000297          	auipc	t0,0x0
     286:	26828293          	addi	t0,t0,616 # 4ea <main>
    #endif
    csrw mepc, t0
     28a:	34129073          	csrw	mepc,t0
    mret
     28e:	30200073          	mret

00000292 <SystemInit>:
 *
 * @return  none
 */
void SystemInit (void)
{
  RCC->CTLR |= (uint32_t)0x00000001;
     292:	400217b7          	lui	a5,0x40021
     296:	4398                	lw	a4,0(a5)
  RCC->CFGR0 &= (uint32_t)0xF0FF0000;
     298:	f0ff06b7          	lui	a3,0xf0ff0
{
     29c:	1141                	addi	sp,sp,-16
  RCC->CTLR |= (uint32_t)0x00000001;
     29e:	00176713          	ori	a4,a4,1
     2a2:	c398                	sw	a4,0(a5)
  RCC->CFGR0 &= (uint32_t)0xF0FF0000;
     2a4:	43d8                	lw	a4,4(a5)
  RCC->CTLR |= ((uint32_t)RCC_HSEON);

  /* Wait till HSE is ready and if Time out is reached exit */
  do
  {
    HSEStatus = RCC->CTLR & RCC_HSERDY;
     2a6:	00020637          	lui	a2,0x20
  RCC->CFGR0 &= (uint32_t)0xF0FF0000;
     2aa:	8f75                	and	a4,a4,a3
     2ac:	c3d8                	sw	a4,4(a5)
  RCC->CTLR &= (uint32_t)0xFEF6FFFF;
     2ae:	4398                	lw	a4,0(a5)
     2b0:	fef706b7          	lui	a3,0xfef70
     2b4:	16fd                	addi	a3,a3,-1
     2b6:	8f75                	and	a4,a4,a3
     2b8:	c398                	sw	a4,0(a5)
  RCC->CTLR &= (uint32_t)0xFFFBFFFF;
     2ba:	4398                	lw	a4,0(a5)
     2bc:	fffc06b7          	lui	a3,0xfffc0
     2c0:	16fd                	addi	a3,a3,-1
     2c2:	8f75                	and	a4,a4,a3
     2c4:	c398                	sw	a4,0(a5)
  RCC->CFGR0 &= (uint32_t)0xFF00FFFF;
     2c6:	43d8                	lw	a4,4(a5)
     2c8:	ff0106b7          	lui	a3,0xff010
     2cc:	16fd                	addi	a3,a3,-1
     2ce:	8f75                	and	a4,a4,a3
     2d0:	c3d8                	sw	a4,4(a5)
  RCC->INTR = 0x009F0000;    
     2d2:	009f0737          	lui	a4,0x9f0
     2d6:	c798                	sw	a4,8(a5)
  __IO uint32_t StartUpCounter = 0, HSEStatus = 0;
     2d8:	c402                	sw	zero,8(sp)
     2da:	c602                	sw	zero,12(sp)
  RCC->CTLR |= ((uint32_t)RCC_HSEON);
     2dc:	4398                	lw	a4,0(a5)
     2de:	66c1                	lui	a3,0x10
     2e0:	8f55                	or	a4,a4,a3
     2e2:	c398                	sw	a4,0(a5)
    HSEStatus = RCC->CTLR & RCC_HSERDY;
     2e4:	400216b7          	lui	a3,0x40021
    StartUpCounter++;
  } while((HSEStatus == 0) && (StartUpCounter != HSE_STARTUP_TIMEOUT));
     2e8:	6705                	lui	a4,0x1
    HSEStatus = RCC->CTLR & RCC_HSERDY;
     2ea:	429c                	lw	a5,0(a3)
     2ec:	8ff1                	and	a5,a5,a2
     2ee:	c63e                	sw	a5,12(sp)
    StartUpCounter++;
     2f0:	47a2                	lw	a5,8(sp)
     2f2:	0785                	addi	a5,a5,1
     2f4:	c43e                	sw	a5,8(sp)
  } while((HSEStatus == 0) && (StartUpCounter != HSE_STARTUP_TIMEOUT));
     2f6:	47b2                	lw	a5,12(sp)
     2f8:	e781                	bnez	a5,300 <SystemInit+0x6e>
     2fa:	47a2                	lw	a5,8(sp)
     2fc:	fee797e3          	bne	a5,a4,2ea <SystemInit+0x58>

  if ((RCC->CTLR & RCC_HSERDY) != RESET)
     300:	400217b7          	lui	a5,0x40021
     304:	439c                	lw	a5,0(a5)
     306:	00e79713          	slli	a4,a5,0xe
     30a:	06075763          	bgez	a4,378 <SystemInit+0xe6>
  {
    HSEStatus = (uint32_t)0x01;
     30e:	4785                	li	a5,1
     310:	c63e                	sw	a5,12(sp)
  else
  {
    HSEStatus = (uint32_t)0x00;
  }

  if (HSEStatus == (uint32_t)0x01)
     312:	4732                	lw	a4,12(sp)
     314:	4785                	li	a5,1
     316:	04f71f63          	bne	a4,a5,374 <SystemInit+0xe2>
  {
    /* HCLK = SYSCLK */
    RCC->CFGR0 |= (uint32_t)RCC_HPRE_DIV1;
     31a:	400217b7          	lui	a5,0x40021
     31e:	43d8                	lw	a4,4(a5)

    /*  CH32V20x_D6-PLL configuration: PLLCLK = HSE * 12 = 96 MHz (HSE=8MHZ)
     *  CH32V20x_D8-PLL configuration: PLLCLK = HSE/4 * 12 = 96 MHz (HSE=32MHZ)
     *  CH32V20x_D8W-PLL configuration: PLLCLK = HSE/4 * 12 = 96 MHz (HSE=32MHZ)
     */
    RCC->CFGR0 &= (uint32_t)((uint32_t)~(RCC_PLLSRC | RCC_PLLXTPRE |
     320:	ffc106b7          	lui	a3,0xffc10
     324:	16fd                	addi	a3,a3,-1
    RCC->CFGR0 |= (uint32_t)RCC_HPRE_DIV1;
     326:	c3d8                	sw	a4,4(a5)
    RCC->CFGR0 |= (uint32_t)RCC_PPRE2_DIV1;
     328:	43d8                	lw	a4,4(a5)
     32a:	c3d8                	sw	a4,4(a5)
    RCC->CFGR0 |= (uint32_t)RCC_PPRE1_DIV2;
     32c:	43d8                	lw	a4,4(a5)
     32e:	40076713          	ori	a4,a4,1024
     332:	c3d8                	sw	a4,4(a5)
    RCC->CFGR0 &= (uint32_t)((uint32_t)~(RCC_PLLSRC | RCC_PLLXTPRE |
     334:	43d8                	lw	a4,4(a5)
     336:	8f75                	and	a4,a4,a3
     338:	c3d8                	sw	a4,4(a5)
                                        RCC_PLLMULL));

    RCC->CFGR0 |= (uint32_t)(RCC_PLLSRC_HSE | RCC_PLLXTPRE_HSE | RCC_PLLMULL12);
     33a:	43d8                	lw	a4,4(a5)
     33c:	002906b7          	lui	a3,0x290
     340:	8f55                	or	a4,a4,a3
     342:	c3d8                	sw	a4,4(a5)

    /* Enable PLL */
    RCC->CTLR |= RCC_PLLON;
     344:	4398                	lw	a4,0(a5)
     346:	010006b7          	lui	a3,0x1000
     34a:	8f55                	or	a4,a4,a3
     34c:	c398                	sw	a4,0(a5)
    /* Wait till PLL is ready */
    while((RCC->CTLR & RCC_PLLRDY) == 0)
     34e:	4398                	lw	a4,0(a5)
     350:	00671693          	slli	a3,a4,0x6
     354:	fe06dde3          	bgez	a3,34e <SystemInit+0xbc>
    {
    }
    /* Select PLL as system clock source */
    RCC->CFGR0 &= (uint32_t)((uint32_t)~(RCC_SW));
     358:	43d8                	lw	a4,4(a5)
    RCC->CFGR0 |= (uint32_t)RCC_SW_PLL;
    /* Wait till PLL is used as system clock source */
    while ((RCC->CFGR0 & (uint32_t)RCC_SWS) != (uint32_t)0x08)
     35a:	400216b7          	lui	a3,0x40021
    RCC->CFGR0 &= (uint32_t)((uint32_t)~(RCC_SW));
     35e:	9b71                	andi	a4,a4,-4
     360:	c3d8                	sw	a4,4(a5)
    RCC->CFGR0 |= (uint32_t)RCC_SW_PLL;
     362:	43d8                	lw	a4,4(a5)
     364:	00276713          	ori	a4,a4,2
     368:	c3d8                	sw	a4,4(a5)
    while ((RCC->CFGR0 & (uint32_t)RCC_SWS) != (uint32_t)0x08)
     36a:	4721                	li	a4,8
     36c:	42dc                	lw	a5,4(a3)
     36e:	8bb1                	andi	a5,a5,12
     370:	fee79ee3          	bne	a5,a4,36c <SystemInit+0xda>
}
     374:	0141                	addi	sp,sp,16
     376:	8082                	ret
    HSEStatus = (uint32_t)0x00;
     378:	c602                	sw	zero,12(sp)
     37a:	bf61                	j	312 <SystemInit+0x80>

0000037c <SystemCoreClockUpdate>:
  tmp = RCC->CFGR0 & RCC_SWS;
     37c:	400216b7          	lui	a3,0x40021
     380:	42dc                	lw	a5,4(a3)
     382:	20000737          	lui	a4,0x20000
     386:	4611                	li	a2,4
     388:	8bb1                	andi	a5,a5,12
  switch (tmp)
     38a:	08070713          	addi	a4,a4,128 # 20000080 <SystemCoreClock>
     38e:	00c78563          	beq	a5,a2,398 <SystemCoreClockUpdate+0x1c>
     392:	4621                	li	a2,8
     394:	02c78863          	beq	a5,a2,3c4 <SystemCoreClockUpdate+0x48>
      SystemCoreClock = HSI_VALUE;
     398:	007a17b7          	lui	a5,0x7a1
     39c:	20078793          	addi	a5,a5,512 # 7a1200 <__fsymtab_end+0x79f750>
          SystemCoreClock = HSE_VALUE * pllmull;
     3a0:	c31c                	sw	a5,0(a4)
  tmp = AHBPrescTable[((RCC->CFGR0 & RCC_HPRE) >> 4)];
     3a2:	400217b7          	lui	a5,0x40021
     3a6:	43dc                	lw	a5,4(a5)
     3a8:	8391                	srli	a5,a5,0x4
     3aa:	00f7f693          	andi	a3,a5,15
     3ae:	200007b7          	lui	a5,0x20000
     3b2:	00078793          	mv	a5,a5
     3b6:	97b6                	add	a5,a5,a3
     3b8:	2394                	lbu	a3,0(a5)
  SystemCoreClock >>= tmp;
     3ba:	431c                	lw	a5,0(a4)
     3bc:	00d7d7b3          	srl	a5,a5,a3
     3c0:	c31c                	sw	a5,0(a4)
}
     3c2:	8082                	ret
      pllmull = RCC->CFGR0 & RCC_PLLMULL;
     3c4:	42dc                	lw	a5,4(a3)
      pllsource = RCC->CFGR0 & RCC_PLLSRC;
     3c6:	42d4                	lw	a3,4(a3)
     3c8:	6641                	lui	a2,0x10
      pllmull = ( pllmull >> 18) + 2;
     3ca:	83c9                	srli	a5,a5,0x12
     3cc:	8bbd                	andi	a5,a5,15
      pllsource = RCC->CFGR0 & RCC_PLLSRC;
     3ce:	8ef1                	and	a3,a3,a2
      pllmull = ( pllmull >> 18) + 2;
     3d0:	0789                	addi	a5,a5,2
      if(pllmull == 17) pllmull = 18;
     3d2:	4645                	li	a2,17
     3d4:	00c79363          	bne	a5,a2,3da <SystemCoreClockUpdate+0x5e>
     3d8:	47c9                	li	a5,18
      if (pllsource == 0x00)
     3da:	ee81                	bnez	a3,3f2 <SystemCoreClockUpdate+0x76>
          if(EXTEN->EXTEN_CTR & EXTEN_PLL_HSI_PRE){
     3dc:	400246b7          	lui	a3,0x40024
     3e0:	8006a683          	lw	a3,-2048(a3) # 40023800 <__freertos_irq_stack_top+0x2001e800>
     3e4:	8ac1                	andi	a3,a3,16
     3e6:	ce89                	beqz	a3,400 <SystemCoreClockUpdate+0x84>
          SystemCoreClock = HSE_VALUE * pllmull;
     3e8:	007a16b7          	lui	a3,0x7a1
     3ec:	20068693          	addi	a3,a3,512 # 7a1200 <__fsymtab_end+0x79f750>
     3f0:	a821                	j	408 <SystemCoreClockUpdate+0x8c>
        if ((RCC->CFGR0 & RCC_PLLXTPRE) != (uint32_t)RESET)
     3f2:	400216b7          	lui	a3,0x40021
     3f6:	42d4                	lw	a3,4(a3)
     3f8:	00e69613          	slli	a2,a3,0xe
     3fc:	fe0656e3          	bgez	a2,3e8 <SystemCoreClockUpdate+0x6c>
          SystemCoreClock = (HSE_VALUE >> 1) * pllmull;
     400:	003d16b7          	lui	a3,0x3d1
     404:	90068693          	addi	a3,a3,-1792 # 3d0900 <__fsymtab_end+0x3cee50>
          SystemCoreClock = HSE_VALUE * pllmull;
     408:	02d787b3          	mul	a5,a5,a3
     40c:	bf51                	j	3a0 <SystemCoreClockUpdate+0x24>

0000040e <Delay_Init>:
 *
 * @return  none
 */
void Delay_Init(void)
{
    p_us = SystemCoreClock / 8000000;
     40e:	200007b7          	lui	a5,0x20000
     412:	0807a783          	lw	a5,128(a5) # 20000080 <SystemCoreClock>
     416:	007a1737          	lui	a4,0x7a1
     41a:	20070713          	addi	a4,a4,512 # 7a1200 <__fsymtab_end+0x79f750>
     41e:	02e7d7b3          	divu	a5,a5,a4
     422:	0ff7f793          	andi	a5,a5,255
     426:	80f18d23          	sb	a5,-2022(gp) # 2000009a <p_us>
    p_ms = (uint16_t)p_us * 1000;
     42a:	3e800713          	li	a4,1000
     42e:	02e787b3          	mul	a5,a5,a4
     432:	80f19c23          	sh	a5,-2024(gp) # 20000098 <_edata>
}
     436:	8082                	ret

00000438 <USART_Printf_Init>:
 * @param   baudrate - USART communication baud rate.
 *
 * @return  None
 */
void USART_Printf_Init(uint32_t baudrate)
{
     438:	cf9ff2ef          	jal	t0,130 <__riscv_save_0>
     43c:	842a                	mv	s0,a0
    GPIO_InitTypeDef  GPIO_InitStructure;
    USART_InitTypeDef USART_InitStructure;

#if(DEBUG == DEBUG_UART1)
    RCC_APB2PeriphClockCmd(RCC_APB2Periph_USART1 | RCC_APB2Periph_GPIOA, ENABLE);
     43e:	6511                	lui	a0,0x4
{
     440:	1101                	addi	sp,sp,-32
    RCC_APB2PeriphClockCmd(RCC_APB2Periph_USART1 | RCC_APB2Periph_GPIOA, ENABLE);
     442:	4585                	li	a1,1
     444:	0511                	addi	a0,a0,4
     446:	2455                	jal	6ea <RCC_APB2PeriphClockCmd>

    GPIO_InitStructure.GPIO_Pin = GPIO_Pin_9;
     448:	20000793          	li	a5,512
     44c:	827c                	sh	a5,4(sp)
    GPIO_InitStructure.GPIO_Speed = GPIO_Speed_50MHz;
    GPIO_InitStructure.GPIO_Mode = GPIO_Mode_AF_PP;
    GPIO_Init(GPIOA, &GPIO_InitStructure);
     44e:	40011537          	lui	a0,0x40011
    GPIO_InitStructure.GPIO_Speed = GPIO_Speed_50MHz;
     452:	478d                	li	a5,3
     454:	c43e                	sw	a5,8(sp)
    GPIO_Init(GPIOA, &GPIO_InitStructure);
     456:	004c                	addi	a1,sp,4
    GPIO_InitStructure.GPIO_Mode = GPIO_Mode_AF_PP;
     458:	47e1                	li	a5,24
    GPIO_Init(GPIOA, &GPIO_InitStructure);
     45a:	80050513          	addi	a0,a0,-2048 # 40010800 <__freertos_irq_stack_top+0x2000b800>
    GPIO_InitStructure.GPIO_Mode = GPIO_Mode_AF_PP;
     45e:	c63e                	sw	a5,12(sp)
    GPIO_Init(GPIOA, &GPIO_InitStructure);
     460:	28d1                	jal	534 <GPIO_Init>
    GPIO_InitStructure.GPIO_Mode = GPIO_Mode_AF_PP;
    GPIO_Init(GPIOB, &GPIO_InitStructure);

#endif

    USART_InitStructure.USART_BaudRate = baudrate;
     462:	c822                	sw	s0,16(sp)
    USART_InitStructure.USART_Parity = USART_Parity_No;
    USART_InitStructure.USART_HardwareFlowControl = USART_HardwareFlowControl_None;
    USART_InitStructure.USART_Mode = USART_Mode_Tx;

#if(DEBUG == DEBUG_UART1)
    USART_Init(USART1, &USART_InitStructure);
     464:	40014437          	lui	s0,0x40014
    USART_InitStructure.USART_Parity = USART_Parity_No;
     468:	000807b7          	lui	a5,0x80
    USART_Init(USART1, &USART_InitStructure);
     46c:	080c                	addi	a1,sp,16
     46e:	80040513          	addi	a0,s0,-2048 # 40013800 <__freertos_irq_stack_top+0x2000e800>
    USART_InitStructure.USART_Parity = USART_Parity_No;
     472:	cc3e                	sw	a5,24(sp)
    USART_InitStructure.USART_WordLength = USART_WordLength_8b;
     474:	ca02                	sw	zero,20(sp)
    USART_InitStructure.USART_HardwareFlowControl = USART_HardwareFlowControl_None;
     476:	00011e23          	sh	zero,28(sp)
    USART_Init(USART1, &USART_InitStructure);
     47a:	2479                	jal	708 <USART_Init>
    USART_Cmd(USART1, ENABLE);
     47c:	4585                	li	a1,1
     47e:	80040513          	addi	a0,s0,-2048
     482:	2e09                	jal	794 <USART_Cmd>
#elif(DEBUG == DEBUG_UART3)
    USART_Init(USART3, &USART_InitStructure);
    USART_Cmd(USART3, ENABLE);

#endif
}
     484:	6105                	addi	sp,sp,32
     486:	b1f9                	j	154 <__riscv_restore_0>

00000488 <_write>:
 *
 * @return  size: Data length
 */
__attribute__((used))
int _write(int fd, char *buf, int size)
{
     488:	c8fff2ef          	jal	t0,116 <__riscv_save_4>


#else
    for(i = 0; i < size; i++){
#if(DEBUG == DEBUG_UART1)
        while(USART_GetFlagStatus(USART1, USART_FLAG_TC) == RESET);
     48c:	400144b7          	lui	s1,0x40014
{
     490:	89ae                	mv	s3,a1
     492:	8932                	mv	s2,a2
    for(i = 0; i < size; i++){
     494:	4401                	li	s0,0
        while(USART_GetFlagStatus(USART1, USART_FLAG_TC) == RESET);
     496:	80048493          	addi	s1,s1,-2048 # 40013800 <__freertos_irq_stack_top+0x2000e800>
    for(i = 0; i < size; i++){
     49a:	01244463          	blt	s0,s2,4a2 <_write+0x1a>
        USART_SendData(USART3, *buf++);
#endif
    }
#endif
    return size;
}
     49e:	854a                	mv	a0,s2
     4a0:	b16d                	j	14a <__riscv_restore_4>
        while(USART_GetFlagStatus(USART1, USART_FLAG_TC) == RESET);
     4a2:	04000593          	li	a1,64
     4a6:	8526                	mv	a0,s1
     4a8:	2629                	jal	7b2 <USART_GetFlagStatus>
     4aa:	dd65                	beqz	a0,4a2 <_write+0x1a>
        USART_SendData(USART1, *buf++);
     4ac:	008987b3          	add	a5,s3,s0
     4b0:	00078583          	lb	a1,0(a5) # 80000 <__fsymtab_end+0x7e550>
     4b4:	8526                	mv	a0,s1
    for(i = 0; i < size; i++){
     4b6:	0405                	addi	s0,s0,1
        USART_SendData(USART1, *buf++);
     4b8:	05c2                	slli	a1,a1,0x10
     4ba:	81c1                	srli	a1,a1,0x10
     4bc:	24fd                	jal	7aa <USART_SendData>
     4be:	bff1                	j	49a <_write+0x12>

000004c0 <_sbrk>:
{
    extern char _end[];
    extern char _heap_end[];
    static char *curbrk = _end;

    if ((curbrk + incr < _end) || (curbrk + incr > _heap_end))
     4c0:	80418713          	addi	a4,gp,-2044 # 20000084 <curbrk.4673>
     4c4:	431c                	lw	a5,0(a4)
     4c6:	82c18693          	addi	a3,gp,-2004 # 200000ac <_ebss>
     4ca:	953e                	add	a0,a0,a5
     4cc:	00d56b63          	bltu	a0,a3,4e2 <_sbrk+0x22>
     4d0:	200056b7          	lui	a3,0x20005
     4d4:	80068693          	addi	a3,a3,-2048 # 20004800 <_heap_end>
     4d8:	00a6e563          	bltu	a3,a0,4e2 <_sbrk+0x22>
    return NULL - 1;

    curbrk += incr;
     4dc:	c308                	sw	a0,0(a4)
    return curbrk - incr;
}
     4de:	853e                	mv	a0,a5
     4e0:	8082                	ret
    return NULL - 1;
     4e2:	57fd                	li	a5,-1
     4e4:	bfed                	j	4de <_sbrk+0x1e>

000004e6 <_fini>:
// If C++ support is active (whch it is by default), then
// the __libc_init_array and __libc_fini_array
// functions will need these functions to be defined.
// mark them as weak so that they're user overridable.
void _fini() __attribute__((weak)); 
void _fini () {}
     4e6:	8082                	ret

000004e8 <_init>:
     4e8:	8082                	ret

000004ea <main>:
#include "debug.h"
#include <ch32v20x.h>
#include <stdlib.h>

int main()
{
     4ea:	c47ff2ef          	jal	t0,130 <__riscv_save_0>
    NVIC_PriorityGroupConfig(NVIC_PriorityGroup_1);
     4ee:	4505                	li	a0,1
     4f0:	2a1d                	jal	626 <NVIC_PriorityGroupConfig>
    SystemCoreClockUpdate();
     4f2:	3569                	jal	37c <SystemCoreClockUpdate>
    Delay_Init();
     4f4:	3f29                	jal	40e <Delay_Init>
    USART_Printf_Init(115200);
     4f6:	6571                	lui	a0,0x1c
     4f8:	20050513          	addi	a0,a0,512 # 1c200 <__fsymtab_end+0x1a750>
     4fc:	3f35                	jal	438 <USART_Printf_Init>
    printf("SystemClk:%d\r\n", SystemCoreClock);
     4fe:	200007b7          	lui	a5,0x20000
     502:	0807a583          	lw	a1,128(a5) # 20000080 <SystemCoreClock>
     506:	00002537          	lui	a0,0x2
     50a:	9dc50513          	addi	a0,a0,-1572 # 19dc <_read+0xc>
     50e:	2e29                	jal	828 <iprintf>
    printf( "ChipID:%08x\r\n", DBGMCU_GetCHIPID() );
     510:	2829                	jal	52a <DBGMCU_GetCHIPID>
     512:	85aa                	mv	a1,a0
     514:	00002537          	lui	a0,0x2
     518:	9ec50513          	addi	a0,a0,-1556 # 19ec <_read+0x1c>
     51c:	2631                	jal	828 <iprintf>
    printf("This is printf example\r\n");
     51e:	00002437          	lui	s0,0x2
     522:	9fc40513          	addi	a0,s0,-1540 # 19fc <_read+0x2c>
     526:	2919                	jal	93c <puts>

    while(1) {
        printf("This is printf example\r\n");
     528:	bfed                	j	522 <main+0x38>

0000052a <DBGMCU_GetCHIPID>:
 *  CH32V208GBU6-0x208305xC
 */
uint32_t DBGMCU_GetCHIPID( void )
{
	return( *( uint32_t * )0x1FFFF704 );
}
     52a:	1ffff7b7          	lui	a5,0x1ffff
     52e:	7047a503          	lw	a0,1796(a5) # 1ffff704 <__fsymtab_end+0x1fffdc54>
     532:	8082                	ret

00000534 <GPIO_Init>:
void GPIO_Init(GPIO_TypeDef *GPIOx, GPIO_InitTypeDef *GPIO_InitStruct)
{
    uint32_t currentmode = 0x00, currentpin = 0x00, pinpos = 0x00, pos = 0x00;
    uint32_t tmpreg = 0x00, pinmask = 0x00;

    currentmode = ((uint32_t)GPIO_InitStruct->GPIO_Mode) & ((uint32_t)0x0F);
     534:	459c                	lw	a5,8(a1)

    if((((uint32_t)GPIO_InitStruct->GPIO_Mode) & ((uint32_t)0x10)) != 0x00)
     536:	0107f713          	andi	a4,a5,16
    currentmode = ((uint32_t)GPIO_InitStruct->GPIO_Mode) & ((uint32_t)0x0F);
     53a:	00f7f813          	andi	a6,a5,15
    if((((uint32_t)GPIO_InitStruct->GPIO_Mode) & ((uint32_t)0x10)) != 0x00)
     53e:	c701                	beqz	a4,546 <GPIO_Init+0x12>
    {
        currentmode |= (uint32_t)GPIO_InitStruct->GPIO_Speed;
     540:	41d8                	lw	a4,4(a1)
     542:	00e86833          	or	a6,a6,a4
    }
#if defined (CH32V20x_D6)
    if(((*(uint32_t *) 0x40022030) & 0x0F000000) == 0)
     546:	40022737          	lui	a4,0x40022
     54a:	5b14                	lw	a3,48(a4)
     54c:	0f000737          	lui	a4,0xf000
     550:	8f75                	and	a4,a4,a3
     552:	eb4d                	bnez	a4,604 <GPIO_Init+0xd0>
    {
        MCU_Version = 1;
     554:	4685                	li	a3,1
     556:	80d18da3          	sb	a3,-2021(gp) # 2000009b <MCU_Version>
    }

    if((GPIOx == GPIOC) && MCU_Version){
     55a:	40011737          	lui	a4,0x40011
     55e:	00e51563          	bne	a0,a4,568 <GPIO_Init+0x34>
        GPIO_InitStruct->GPIO_Pin = GPIO_InitStruct->GPIO_Pin >> 13;
     562:	219a                	lhu	a4,0(a1)
     564:	8335                	srli	a4,a4,0xd
     566:	a19a                	sh	a4,0(a1)
    }

#endif
    if(((uint32_t)GPIO_InitStruct->GPIO_Pin & ((uint32_t)0x00FF)) != 0x00)
     568:	218e                	lhu	a1,0(a1)
     56a:	0ff5f713          	andi	a4,a1,255
     56e:	c339                	beqz	a4,5b4 <GPIO_Init+0x80>
    {
        tmpreg = GPIOx->CFGLR;
     570:	4118                	lw	a4,0(a0)

        for(pinpos = 0x00; pinpos < 0x08; pinpos++)
     572:	4681                	li	a3,0
        {
            pos = ((uint32_t)0x01) << pinpos;
     574:	4e85                	li	t4,1
            currentpin = (GPIO_InitStruct->GPIO_Pin) & pos;

            if(currentpin == pos)
            {
                pos = pinpos << 2;
                pinmask = ((uint32_t)0x0F) << pos;
     576:	4f3d                	li	t5,15
                tmpreg &= ~pinmask;
                tmpreg |= (currentmode << pos);

                if(GPIO_InitStruct->GPIO_Mode == GPIO_Mode_IPD)
     578:	02800f93          	li	t6,40
                {
                    GPIOx->BCR = (((uint32_t)0x01) << pinpos);
                }
                else
                {
                    if(GPIO_InitStruct->GPIO_Mode == GPIO_Mode_IPU)
     57c:	04800293          	li	t0,72
        for(pinpos = 0x00; pinpos < 0x08; pinpos++)
     580:	4e21                	li	t3,8
            pos = ((uint32_t)0x01) << pinpos;
     582:	00de9633          	sll	a2,t4,a3
            currentpin = (GPIO_InitStruct->GPIO_Pin) & pos;
     586:	00c5f8b3          	and	a7,a1,a2
            if(currentpin == pos)
     58a:	03161163          	bne	a2,a7,5ac <GPIO_Init+0x78>
                pos = pinpos << 2;
     58e:	00269893          	slli	a7,a3,0x2
                pinmask = ((uint32_t)0x0F) << pos;
     592:	011f1333          	sll	t1,t5,a7
                tmpreg &= ~pinmask;
     596:	fff34313          	not	t1,t1
     59a:	00e37733          	and	a4,t1,a4
                tmpreg |= (currentmode << pos);
     59e:	011818b3          	sll	a7,a6,a7
     5a2:	00e8e733          	or	a4,a7,a4
                if(GPIO_InitStruct->GPIO_Mode == GPIO_Mode_IPD)
     5a6:	07f79763          	bne	a5,t6,614 <GPIO_Init+0xe0>
                    GPIOx->BCR = (((uint32_t)0x01) << pinpos);
     5aa:	c950                	sw	a2,20(a0)
        for(pinpos = 0x00; pinpos < 0x08; pinpos++)
     5ac:	0685                	addi	a3,a3,1
     5ae:	fdc69ae3          	bne	a3,t3,582 <GPIO_Init+0x4e>
                        GPIOx->BSHR = (((uint32_t)0x01) << pinpos);
                    }
                }
            }
        }
        GPIOx->CFGLR = tmpreg;
     5b2:	c118                	sw	a4,0(a0)
    }

    if(GPIO_InitStruct->GPIO_Pin > 0x00FF)
     5b4:	0ff00713          	li	a4,255
     5b8:	04b77563          	bgeu	a4,a1,602 <GPIO_Init+0xce>
    {
        tmpreg = GPIOx->CFGHR;
     5bc:	4154                	lw	a3,4(a0)
     5be:	4621                	li	a2,8

        for(pinpos = 0x00; pinpos < 0x08; pinpos++)
        {
            pos = (((uint32_t)0x01) << (pinpos + 0x08));
     5c0:	4e85                	li	t4,1
            currentpin = ((GPIO_InitStruct->GPIO_Pin) & pos);

            if(currentpin == pos)
            {
                pos = pinpos << 2;
                pinmask = ((uint32_t)0x0F) << pos;
     5c2:	4f3d                	li	t5,15
                tmpreg &= ~pinmask;
                tmpreg |= (currentmode << pos);

                if(GPIO_InitStruct->GPIO_Mode == GPIO_Mode_IPD)
     5c4:	02800f93          	li	t6,40
                {
                    GPIOx->BCR = (((uint32_t)0x01) << (pinpos + 0x08));
                }

                if(GPIO_InitStruct->GPIO_Mode == GPIO_Mode_IPU)
     5c8:	04800293          	li	t0,72
        for(pinpos = 0x00; pinpos < 0x08; pinpos++)
     5cc:	4e41                	li	t3,16
            pos = (((uint32_t)0x01) << (pinpos + 0x08));
     5ce:	00ce98b3          	sll	a7,t4,a2
            currentpin = ((GPIO_InitStruct->GPIO_Pin) & pos);
     5d2:	0115f733          	and	a4,a1,a7
            if(currentpin == pos)
     5d6:	02e89263          	bne	a7,a4,5fa <GPIO_Init+0xc6>
                pos = pinpos << 2;
     5da:	00261713          	slli	a4,a2,0x2
     5de:	1701                	addi	a4,a4,-32
                pinmask = ((uint32_t)0x0F) << pos;
     5e0:	00ef1333          	sll	t1,t5,a4
                tmpreg &= ~pinmask;
     5e4:	fff34313          	not	t1,t1
     5e8:	00d376b3          	and	a3,t1,a3
                tmpreg |= (currentmode << pos);
     5ec:	00e81733          	sll	a4,a6,a4
     5f0:	8ed9                	or	a3,a3,a4
                if(GPIO_InitStruct->GPIO_Mode == GPIO_Mode_IPD)
     5f2:	03f79563          	bne	a5,t6,61c <GPIO_Init+0xe8>
                    GPIOx->BCR = (((uint32_t)0x01) << (pinpos + 0x08));
     5f6:	01152a23          	sw	a7,20(a0)
                if(GPIO_InitStruct->GPIO_Mode == GPIO_Mode_IPU)
     5fa:	0605                	addi	a2,a2,1
        for(pinpos = 0x00; pinpos < 0x08; pinpos++)
     5fc:	fdc619e3          	bne	a2,t3,5ce <GPIO_Init+0x9a>
                {
                    GPIOx->BSHR = (((uint32_t)0x01) << (pinpos + 0x08));
                }
            }
        }
        GPIOx->CFGHR = tmpreg;
     600:	c154                	sw	a3,4(a0)
    }
}
     602:	8082                	ret
    if((GPIOx == GPIOC) && MCU_Version){
     604:	40011737          	lui	a4,0x40011
     608:	f6e510e3          	bne	a0,a4,568 <GPIO_Init+0x34>
     60c:	81b1c703          	lbu	a4,-2021(gp) # 2000009b <MCU_Version>
     610:	df21                	beqz	a4,568 <GPIO_Init+0x34>
     612:	bf81                	j	562 <GPIO_Init+0x2e>
                    if(GPIO_InitStruct->GPIO_Mode == GPIO_Mode_IPU)
     614:	f8579ce3          	bne	a5,t0,5ac <GPIO_Init+0x78>
                        GPIOx->BSHR = (((uint32_t)0x01) << pinpos);
     618:	c910                	sw	a2,16(a0)
     61a:	bf49                	j	5ac <GPIO_Init+0x78>
                if(GPIO_InitStruct->GPIO_Mode == GPIO_Mode_IPU)
     61c:	fc579fe3          	bne	a5,t0,5fa <GPIO_Init+0xc6>
                    GPIOx->BSHR = (((uint32_t)0x01) << (pinpos + 0x08));
     620:	01152823          	sw	a7,16(a0)
     624:	bfd9                	j	5fa <GPIO_Init+0xc6>

00000626 <NVIC_PriorityGroupConfig>:
 *
 * @return  none
 */
void NVIC_PriorityGroupConfig(uint32_t NVIC_PriorityGroup)
{
    NVIC_Priority_Group = NVIC_PriorityGroup;
     626:	80a1ae23          	sw	a0,-2020(gp) # 2000009c <NVIC_Priority_Group>
}
     62a:	8082                	ret

0000062c <RCC_GetClocksFreq>:
 */
void RCC_GetClocksFreq(RCC_ClocksTypeDef* RCC_Clocks)
{
    uint32_t tmp = 0, pllmull = 0, pllsource = 0, presc = 0;

    tmp = RCC->CFGR0 & CFGR0_SWS_Mask;
     62c:	40021737          	lui	a4,0x40021
     630:	435c                	lw	a5,4(a4)
     632:	4691                	li	a3,4
     634:	8bb1                	andi	a5,a5,12

    switch (tmp)
     636:	00d78563          	beq	a5,a3,640 <RCC_GetClocksFreq+0x14>
     63a:	46a1                	li	a3,8
     63c:	06d78263          	beq	a5,a3,6a0 <RCC_GetClocksFreq+0x74>
    {
      case 0x00:
        RCC_Clocks->SYSCLK_Frequency = HSI_VALUE;
     640:	007a17b7          	lui	a5,0x7a1
     644:	20078793          	addi	a5,a5,512 # 7a1200 <__fsymtab_end+0x79f750>
          else
          {
#if defined (CH32V20x_D8) || defined (CH32V20x_D8W)
              RCC_Clocks->SYSCLK_Frequency = (HSE_VALUE>>2) * pllmull;
#else
            RCC_Clocks->SYSCLK_Frequency = HSE_VALUE * pllmull;
     648:	c11c                	sw	a5,0(a0)
      default:
        RCC_Clocks->SYSCLK_Frequency = HSI_VALUE;
        break;
    }

    tmp = RCC->CFGR0 & CFGR0_HPRE_Set_Mask;
     64a:	40021637          	lui	a2,0x40021
     64e:	425c                	lw	a5,4(a2)
    tmp = tmp >> 4;
    presc = APBAHBPrescTable[tmp];
     650:	20000737          	lui	a4,0x20000
     654:	01070713          	addi	a4,a4,16 # 20000010 <APBAHBPrescTable>
    tmp = tmp >> 4;
     658:	8391                	srli	a5,a5,0x4
     65a:	8bbd                	andi	a5,a5,15
    presc = APBAHBPrescTable[tmp];
     65c:	97ba                	add	a5,a5,a4
     65e:	2394                	lbu	a3,0(a5)
    RCC_Clocks->HCLK_Frequency = RCC_Clocks->SYSCLK_Frequency >> presc;
     660:	411c                	lw	a5,0(a0)
     662:	00d7d7b3          	srl	a5,a5,a3
     666:	c15c                	sw	a5,4(a0)
    tmp = RCC->CFGR0 & CFGR0_PPRE1_Set_Mask;
     668:	4254                	lw	a3,4(a2)
    tmp = tmp >> 8;
     66a:	82a1                	srli	a3,a3,0x8
     66c:	8a9d                	andi	a3,a3,7
    presc = APBAHBPrescTable[tmp];
     66e:	96ba                	add	a3,a3,a4
     670:	2294                	lbu	a3,0(a3)
    RCC_Clocks->PCLK1_Frequency = RCC_Clocks->HCLK_Frequency >> presc;
     672:	00d7d6b3          	srl	a3,a5,a3
     676:	c514                	sw	a3,8(a0)
    tmp = RCC->CFGR0 & CFGR0_PPRE2_Set_Mask;
     678:	4254                	lw	a3,4(a2)
    tmp = tmp >> 11;
     67a:	82ad                	srli	a3,a3,0xb
     67c:	8a9d                	andi	a3,a3,7
    presc = APBAHBPrescTable[tmp];
     67e:	9736                	add	a4,a4,a3
     680:	2318                	lbu	a4,0(a4)
    RCC_Clocks->PCLK2_Frequency = RCC_Clocks->HCLK_Frequency >> presc;
     682:	00e7d7b3          	srl	a5,a5,a4
     686:	c55c                	sw	a5,12(a0)
    tmp = RCC->CFGR0 & CFGR0_ADCPRE_Set_Mask;
     688:	4258                	lw	a4,4(a2)
    tmp = tmp >> 14;
     68a:	8339                	srli	a4,a4,0xe
     68c:	00377693          	andi	a3,a4,3
    presc = ADCPrescTable[tmp];
     690:	80818713          	addi	a4,gp,-2040 # 20000088 <ADCPrescTable>
     694:	9736                	add	a4,a4,a3
     696:	2318                	lbu	a4,0(a4)
    RCC_Clocks->ADCCLK_Frequency = RCC_Clocks->PCLK2_Frequency / presc;
     698:	02e7d7b3          	divu	a5,a5,a4
     69c:	c91c                	sw	a5,16(a0)
}
     69e:	8082                	ret
        pllmull = RCC->CFGR0 & CFGR0_PLLMull_Mask;
     6a0:	435c                	lw	a5,4(a4)
        pllsource = RCC->CFGR0 & CFGR0_PLLSRC_Mask;
     6a2:	4358                	lw	a4,4(a4)
     6a4:	66c1                	lui	a3,0x10
        pllmull = ( pllmull >> 18) + 2;
     6a6:	83c9                	srli	a5,a5,0x12
     6a8:	8bbd                	andi	a5,a5,15
        pllsource = RCC->CFGR0 & CFGR0_PLLSRC_Mask;
     6aa:	8f75                	and	a4,a4,a3
        pllmull = ( pllmull >> 18) + 2;
     6ac:	0789                	addi	a5,a5,2
        if(pllmull == 17) pllmull = 18;
     6ae:	46c5                	li	a3,17
     6b0:	00d79363          	bne	a5,a3,6b6 <RCC_GetClocksFreq+0x8a>
     6b4:	47c9                	li	a5,18
        if (pllsource == 0x00)
     6b6:	ef01                	bnez	a4,6ce <RCC_GetClocksFreq+0xa2>
          if(EXTEN->EXTEN_CTR & EXTEN_PLL_HSI_PRE){
     6b8:	40024737          	lui	a4,0x40024
     6bc:	80072703          	lw	a4,-2048(a4) # 40023800 <__freertos_irq_stack_top+0x2001e800>
     6c0:	8b41                	andi	a4,a4,16
     6c2:	cf09                	beqz	a4,6dc <RCC_GetClocksFreq+0xb0>
            RCC_Clocks->SYSCLK_Frequency = HSE_VALUE * pllmull;
     6c4:	007a1737          	lui	a4,0x7a1
     6c8:	20070713          	addi	a4,a4,512 # 7a1200 <__fsymtab_end+0x79f750>
     6cc:	a821                	j	6e4 <RCC_GetClocksFreq+0xb8>
          if ((RCC->CFGR0 & CFGR0_PLLXTPRE_Mask) != (uint32_t)RESET)
     6ce:	40021737          	lui	a4,0x40021
     6d2:	4358                	lw	a4,4(a4)
     6d4:	00e71693          	slli	a3,a4,0xe
     6d8:	fe06d6e3          	bgez	a3,6c4 <RCC_GetClocksFreq+0x98>
            RCC_Clocks->SYSCLK_Frequency = (HSE_VALUE >> 1) * pllmull;
     6dc:	003d1737          	lui	a4,0x3d1
     6e0:	90070713          	addi	a4,a4,-1792 # 3d0900 <__fsymtab_end+0x3cee50>
            RCC_Clocks->SYSCLK_Frequency = HSE_VALUE * pllmull;
     6e4:	02e787b3          	mul	a5,a5,a4
     6e8:	b785                	j	648 <RCC_GetClocksFreq+0x1c>

000006ea <RCC_APB2PeriphClockCmd>:
 *
 * @return  none
 */
void RCC_APB2PeriphClockCmd(uint32_t RCC_APB2Periph, FunctionalState NewState)
{
  if (NewState != DISABLE)
     6ea:	c599                	beqz	a1,6f8 <RCC_APB2PeriphClockCmd+0xe>
  {
    RCC->APB2PCENR |= RCC_APB2Periph;
     6ec:	40021737          	lui	a4,0x40021
     6f0:	4f1c                	lw	a5,24(a4)
     6f2:	8d5d                	or	a0,a0,a5
     6f4:	cf08                	sw	a0,24(a4)
     6f6:	8082                	ret
  }
  else
  {
    RCC->APB2PCENR &= ~RCC_APB2Periph;
     6f8:	400217b7          	lui	a5,0x40021
     6fc:	4f98                	lw	a4,24(a5)
     6fe:	fff54513          	not	a0,a0
     702:	8d79                	and	a0,a0,a4
     704:	cf88                	sw	a0,24(a5)
  }
}
     706:	8082                	ret

00000708 <USART_Init>:
 *        USART peripheral.
 *
 * @return  none
 */
void USART_Init(USART_TypeDef *USARTx, USART_InitTypeDef *USART_InitStruct)
{
     708:	a29ff2ef          	jal	t0,130 <__riscv_save_0>
    if(USART_InitStruct->USART_HardwareFlowControl != USART_HardwareFlowControl_None)
    {
    }

    usartxbase = (uint32_t)USARTx;
    tmpreg = USARTx->CTLR2;
     70c:	2916                	lhu	a3,16(a0)
     70e:	77f5                	lui	a5,0xffffd
     710:	17fd                	addi	a5,a5,-1
     712:	8ff5                	and	a5,a5,a3
     714:	21f6                	lhu	a3,6(a1)
    if(USART_InitStruct->USART_HardwareFlowControl != USART_HardwareFlowControl_None)
     716:	25da                	lhu	a4,12(a1)
{
     718:	7179                	addi	sp,sp,-48
     71a:	8fd5                	or	a5,a5,a3
    tmpreg &= CTLR2_STOP_CLEAR_Mask;
    tmpreg |= (uint32_t)USART_InitStruct->USART_StopBits;

    USARTx->CTLR2 = (uint16_t)tmpreg;
     71c:	a91e                	sh	a5,16(a0)
    tmpreg = USARTx->CTLR1;
     71e:	2556                	lhu	a3,12(a0)
    tmpreg &= CTLR1_CLEAR_Mask;
    tmpreg |= (uint32_t)USART_InitStruct->USART_WordLength | USART_InitStruct->USART_Parity |
     720:	77fd                	lui	a5,0xfffff
     722:	9f378793          	addi	a5,a5,-1549 # ffffe9f3 <__freertos_irq_stack_top+0xdfff99f3>
     726:	8ff5                	and	a5,a5,a3
     728:	21d6                	lhu	a3,4(a1)
{
     72a:	842a                	mv	s0,a0
     72c:	c62e                	sw	a1,12(sp)
     72e:	8fd5                	or	a5,a5,a3
     730:	2596                	lhu	a3,8(a1)
     732:	8fd5                	or	a5,a5,a3
     734:	25b6                	lhu	a3,10(a1)
     736:	8fd5                	or	a5,a5,a3
              USART_InitStruct->USART_Mode;
    USARTx->CTLR1 = (uint16_t)tmpreg;
     738:	a55e                	sh	a5,12(a0)

    tmpreg = USARTx->CTLR3;
     73a:	295e                	lhu	a5,20(a0)
     73c:	07c2                	slli	a5,a5,0x10
     73e:	83c1                	srli	a5,a5,0x10
    tmpreg &= CTLR3_CLEAR_Mask;
    tmpreg |= USART_InitStruct->USART_HardwareFlowControl;
     740:	cff7f793          	andi	a5,a5,-769
     744:	8fd9                	or	a5,a5,a4
    USARTx->CTLR3 = (uint16_t)tmpreg;
     746:	a95e                	sh	a5,20(a0)

    RCC_GetClocksFreq(&RCC_ClocksStatus);
     748:	0868                	addi	a0,sp,28
     74a:	35cd                	jal	62c <RCC_GetClocksFreq>

    if(usartxbase == USART1_BASE)
     74c:	400147b7          	lui	a5,0x40014
     750:	80078793          	addi	a5,a5,-2048 # 40013800 <__freertos_irq_stack_top+0x2000e800>
     754:	45b2                	lw	a1,12(sp)
     756:	02f41d63          	bne	s0,a5,790 <USART_Init+0x88>
    {
        apbclock = RCC_ClocksStatus.PCLK2_Frequency;
     75a:	57a2                	lw	a5,40(sp)
    }
    else
    {
        apbclock = RCC_ClocksStatus.PCLK1_Frequency;
    }
    integerdivider = ((25 * apbclock) / (4 * (USART_InitStruct->USART_BaudRate)));
     75c:	4765                	li	a4,25
     75e:	02e787b3          	mul	a5,a5,a4
     762:	4198                	lw	a4,0(a1)
    tmpreg = (integerdivider / 100) << 4;
     764:	06400693          	li	a3,100
    integerdivider = ((25 * apbclock) / (4 * (USART_InitStruct->USART_BaudRate)));
     768:	070a                	slli	a4,a4,0x2
     76a:	02e7d7b3          	divu	a5,a5,a4
    tmpreg = (integerdivider / 100) << 4;
     76e:	02d7d733          	divu	a4,a5,a3
    fractionaldivider = integerdivider - (100 * (tmpreg >> 4));
    tmpreg |= ((((fractionaldivider * 16) + 50) / 100)) & ((uint8_t)0x0F);
     772:	02d7f7b3          	remu	a5,a5,a3
    tmpreg = (integerdivider / 100) << 4;
     776:	0712                	slli	a4,a4,0x4
    tmpreg |= ((((fractionaldivider * 16) + 50) / 100)) & ((uint8_t)0x0F);
     778:	0792                	slli	a5,a5,0x4
     77a:	03278793          	addi	a5,a5,50
     77e:	02d7d7b3          	divu	a5,a5,a3
     782:	8bbd                	andi	a5,a5,15
     784:	8fd9                	or	a5,a5,a4
    USARTx->BRR = (uint16_t)tmpreg;
     786:	07c2                	slli	a5,a5,0x10
     788:	83c1                	srli	a5,a5,0x10
     78a:	a41e                	sh	a5,8(s0)
}
     78c:	6145                	addi	sp,sp,48
     78e:	b2d9                	j	154 <__riscv_restore_0>
        apbclock = RCC_ClocksStatus.PCLK1_Frequency;
     790:	5792                	lw	a5,36(sp)
     792:	b7e9                	j	75c <USART_Init+0x54>

00000794 <USART_Cmd>:
 *
 * @return  none
 */
void USART_Cmd(USART_TypeDef *USARTx, FunctionalState NewState)
{
    if(NewState != DISABLE)
     794:	c591                	beqz	a1,7a0 <USART_Cmd+0xc>
    {
        USARTx->CTLR1 |= CTLR1_UE_Set;
     796:	255e                	lhu	a5,12(a0)
     798:	6709                	lui	a4,0x2
     79a:	8fd9                	or	a5,a5,a4
    }
    else
    {
        USARTx->CTLR1 &= CTLR1_UE_Reset;
     79c:	a55e                	sh	a5,12(a0)
    }
}
     79e:	8082                	ret
        USARTx->CTLR1 &= CTLR1_UE_Reset;
     7a0:	255a                	lhu	a4,12(a0)
     7a2:	77f9                	lui	a5,0xffffe
     7a4:	17fd                	addi	a5,a5,-1
     7a6:	8ff9                	and	a5,a5,a4
     7a8:	bfd5                	j	79c <USART_Cmd+0x8>

000007aa <USART_SendData>:
 *
 * @return  none
 */
void USART_SendData(USART_TypeDef *USARTx, uint16_t Data)
{
    USARTx->DATAR = (Data & (uint16_t)0x01FF);
     7aa:	1ff5f593          	andi	a1,a1,511
     7ae:	a14e                	sh	a1,4(a0)
}
     7b0:	8082                	ret

000007b2 <USART_GetFlagStatus>:
FlagStatus USART_GetFlagStatus(USART_TypeDef *USARTx, uint16_t USART_FLAG)
{
    FlagStatus bitstatus = RESET;


    if((USARTx->STATR & USART_FLAG) != (uint16_t)RESET)
     7b2:	210a                	lhu	a0,0(a0)
     7b4:	8d6d                	and	a0,a0,a1
    else
    {
        bitstatus = RESET;
    }
    return bitstatus;
}
     7b6:	00a03533          	snez	a0,a0
     7ba:	8082                	ret

000007bc <__libc_init_array>:
     7bc:	1141                	addi	sp,sp,-16
     7be:	00001797          	auipc	a5,0x1
     7c2:	2f278793          	addi	a5,a5,754 # 1ab0 <__fsymtab_end>
     7c6:	c422                	sw	s0,8(sp)
     7c8:	00001417          	auipc	s0,0x1
     7cc:	2e840413          	addi	s0,s0,744 # 1ab0 <__fsymtab_end>
     7d0:	8c1d                	sub	s0,s0,a5
     7d2:	c226                	sw	s1,4(sp)
     7d4:	c04a                	sw	s2,0(sp)
     7d6:	c606                	sw	ra,12(sp)
     7d8:	8409                	srai	s0,s0,0x2
     7da:	4481                	li	s1,0
     7dc:	893e                	mv	s2,a5
     7de:	02849763          	bne	s1,s0,80c <__stack_size+0xc>
     7e2:	3319                	jal	4e8 <_init>
     7e4:	00001797          	auipc	a5,0x1
     7e8:	2cc78793          	addi	a5,a5,716 # 1ab0 <__fsymtab_end>
     7ec:	00001417          	auipc	s0,0x1
     7f0:	2c440413          	addi	s0,s0,708 # 1ab0 <__fsymtab_end>
     7f4:	8c1d                	sub	s0,s0,a5
     7f6:	8409                	srai	s0,s0,0x2
     7f8:	4481                	li	s1,0
     7fa:	893e                	mv	s2,a5
     7fc:	00849f63          	bne	s1,s0,81a <__stack_size+0x1a>
     800:	40b2                	lw	ra,12(sp)
     802:	4422                	lw	s0,8(sp)
     804:	4492                	lw	s1,4(sp)
     806:	4902                	lw	s2,0(sp)
     808:	0141                	addi	sp,sp,16
     80a:	8082                	ret
     80c:	00249793          	slli	a5,s1,0x2
     810:	97ca                	add	a5,a5,s2
     812:	439c                	lw	a5,0(a5)
     814:	0485                	addi	s1,s1,1
     816:	9782                	jalr	a5
     818:	b7d9                	j	7de <__libc_init_array+0x22>
     81a:	00249793          	slli	a5,s1,0x2
     81e:	97ca                	add	a5,a5,s2
     820:	439c                	lw	a5,0(a5)
     822:	0485                	addi	s1,s1,1
     824:	9782                	jalr	a5
     826:	bfd9                	j	7fc <__libc_init_array+0x40>

00000828 <iprintf>:
     828:	7139                	addi	sp,sp,-64
     82a:	da3e                	sw	a5,52(sp)
     82c:	d22e                	sw	a1,36(sp)
     82e:	d432                	sw	a2,40(sp)
     830:	d636                	sw	a3,44(sp)
     832:	d83a                	sw	a4,48(sp)
     834:	dc42                	sw	a6,56(sp)
     836:	de46                	sw	a7,60(sp)
     838:	80c18793          	addi	a5,gp,-2036 # 2000008c <_impure_ptr>
     83c:	cc22                	sw	s0,24(sp)
     83e:	4380                	lw	s0,0(a5)
     840:	ca26                	sw	s1,20(sp)
     842:	ce06                	sw	ra,28(sp)
     844:	84aa                	mv	s1,a0
     846:	c409                	beqz	s0,850 <iprintf+0x28>
     848:	4c1c                	lw	a5,24(s0)
     84a:	e399                	bnez	a5,850 <iprintf+0x28>
     84c:	8522                	mv	a0,s0
     84e:	29ed                	jal	d48 <__sinit>
     850:	440c                	lw	a1,8(s0)
     852:	1054                	addi	a3,sp,36
     854:	8626                	mv	a2,s1
     856:	8522                	mv	a0,s0
     858:	c636                	sw	a3,12(sp)
     85a:	127000ef          	jal	ra,1180 <_vfiprintf_r>
     85e:	40f2                	lw	ra,28(sp)
     860:	4462                	lw	s0,24(sp)
     862:	44d2                	lw	s1,20(sp)
     864:	6121                	addi	sp,sp,64
     866:	8082                	ret

00000868 <_puts_r>:
     868:	1101                	addi	sp,sp,-32
     86a:	ca26                	sw	s1,20(sp)
     86c:	c84a                	sw	s2,16(sp)
     86e:	ce06                	sw	ra,28(sp)
     870:	cc22                	sw	s0,24(sp)
     872:	c64e                	sw	s3,12(sp)
     874:	c452                	sw	s4,8(sp)
     876:	84aa                	mv	s1,a0
     878:	892e                	mv	s2,a1
     87a:	c501                	beqz	a0,882 <_puts_r+0x1a>
     87c:	4d1c                	lw	a5,24(a0)
     87e:	e391                	bnez	a5,882 <_puts_r+0x1a>
     880:	21e1                	jal	d48 <__sinit>
     882:	4c9c                	lw	a5,24(s1)
     884:	4480                	lw	s0,8(s1)
     886:	e399                	bnez	a5,88c <_puts_r+0x24>
     888:	8526                	mv	a0,s1
     88a:	297d                	jal	d48 <__sinit>
     88c:	00001797          	auipc	a5,0x1
     890:	1a878793          	addi	a5,a5,424 # 1a34 <__sf_fake_stdin>
     894:	02f41b63          	bne	s0,a5,8ca <_puts_r+0x62>
     898:	40c0                	lw	s0,4(s1)
     89a:	245e                	lhu	a5,12(s0)
     89c:	8ba1                	andi	a5,a5,8
     89e:	c7b1                	beqz	a5,8ea <_puts_r+0x82>
     8a0:	481c                	lw	a5,16(s0)
     8a2:	c7a1                	beqz	a5,8ea <_puts_r+0x82>
     8a4:	59fd                	li	s3,-1
     8a6:	4a29                	li	s4,10
     8a8:	441c                	lw	a5,8(s0)
     8aa:	00094583          	lbu	a1,0(s2)
     8ae:	17fd                	addi	a5,a5,-1
     8b0:	e9b1                	bnez	a1,904 <_puts_r+0x9c>
     8b2:	c41c                	sw	a5,8(s0)
     8b4:	0607dd63          	bgez	a5,92e <_puts_r+0xc6>
     8b8:	8622                	mv	a2,s0
     8ba:	45a9                	li	a1,10
     8bc:	8526                	mv	a0,s1
     8be:	2061                	jal	946 <__swbuf_r>
     8c0:	57fd                	li	a5,-1
     8c2:	02f50863          	beq	a0,a5,8f2 <_puts_r+0x8a>
     8c6:	4529                	li	a0,10
     8c8:	a035                	j	8f4 <_puts_r+0x8c>
     8ca:	00001797          	auipc	a5,0x1
     8ce:	18a78793          	addi	a5,a5,394 # 1a54 <__sf_fake_stdout>
     8d2:	00f41463          	bne	s0,a5,8da <_puts_r+0x72>
     8d6:	4480                	lw	s0,8(s1)
     8d8:	b7c9                	j	89a <_puts_r+0x32>
     8da:	00001797          	auipc	a5,0x1
     8de:	13a78793          	addi	a5,a5,314 # 1a14 <__sf_fake_stderr>
     8e2:	faf41ce3          	bne	s0,a5,89a <_puts_r+0x32>
     8e6:	44c0                	lw	s0,12(s1)
     8e8:	bf4d                	j	89a <_puts_r+0x32>
     8ea:	85a2                	mv	a1,s0
     8ec:	8526                	mv	a0,s1
     8ee:	2a11                	jal	a02 <__swsetup_r>
     8f0:	d955                	beqz	a0,8a4 <_puts_r+0x3c>
     8f2:	557d                	li	a0,-1
     8f4:	40f2                	lw	ra,28(sp)
     8f6:	4462                	lw	s0,24(sp)
     8f8:	44d2                	lw	s1,20(sp)
     8fa:	4942                	lw	s2,16(sp)
     8fc:	49b2                	lw	s3,12(sp)
     8fe:	4a22                	lw	s4,8(sp)
     900:	6105                	addi	sp,sp,32
     902:	8082                	ret
     904:	c41c                	sw	a5,8(s0)
     906:	0905                	addi	s2,s2,1
     908:	0007d763          	bgez	a5,916 <_puts_r+0xae>
     90c:	4c18                	lw	a4,24(s0)
     90e:	00e7ca63          	blt	a5,a4,922 <_puts_r+0xba>
     912:	01458863          	beq	a1,s4,922 <_puts_r+0xba>
     916:	401c                	lw	a5,0(s0)
     918:	00178713          	addi	a4,a5,1
     91c:	c018                	sw	a4,0(s0)
     91e:	a38c                	sb	a1,0(a5)
     920:	b761                	j	8a8 <_puts_r+0x40>
     922:	8622                	mv	a2,s0
     924:	8526                	mv	a0,s1
     926:	2005                	jal	946 <__swbuf_r>
     928:	f93510e3          	bne	a0,s3,8a8 <_puts_r+0x40>
     92c:	b7d9                	j	8f2 <_puts_r+0x8a>
     92e:	401c                	lw	a5,0(s0)
     930:	00178713          	addi	a4,a5,1
     934:	c018                	sw	a4,0(s0)
     936:	4729                	li	a4,10
     938:	a398                	sb	a4,0(a5)
     93a:	b771                	j	8c6 <_puts_r+0x5e>

0000093c <puts>:
     93c:	80c18793          	addi	a5,gp,-2036 # 2000008c <_impure_ptr>
     940:	85aa                	mv	a1,a0
     942:	4388                	lw	a0,0(a5)
     944:	b715                	j	868 <_puts_r>

00000946 <__swbuf_r>:
     946:	1101                	addi	sp,sp,-32
     948:	cc22                	sw	s0,24(sp)
     94a:	ca26                	sw	s1,20(sp)
     94c:	c84a                	sw	s2,16(sp)
     94e:	ce06                	sw	ra,28(sp)
     950:	c64e                	sw	s3,12(sp)
     952:	84aa                	mv	s1,a0
     954:	892e                	mv	s2,a1
     956:	8432                	mv	s0,a2
     958:	c501                	beqz	a0,960 <__swbuf_r+0x1a>
     95a:	4d1c                	lw	a5,24(a0)
     95c:	e391                	bnez	a5,960 <__swbuf_r+0x1a>
     95e:	26ed                	jal	d48 <__sinit>
     960:	00001797          	auipc	a5,0x1
     964:	0d478793          	addi	a5,a5,212 # 1a34 <__sf_fake_stdin>
     968:	06f41763          	bne	s0,a5,9d6 <__swbuf_r+0x90>
     96c:	40c0                	lw	s0,4(s1)
     96e:	4c1c                	lw	a5,24(s0)
     970:	c41c                	sw	a5,8(s0)
     972:	245e                	lhu	a5,12(s0)
     974:	8ba1                	andi	a5,a5,8
     976:	c3c1                	beqz	a5,9f6 <__swbuf_r+0xb0>
     978:	481c                	lw	a5,16(s0)
     97a:	cfb5                	beqz	a5,9f6 <__swbuf_r+0xb0>
     97c:	481c                	lw	a5,16(s0)
     97e:	4008                	lw	a0,0(s0)
     980:	0ff97993          	andi	s3,s2,255
     984:	0ff97913          	andi	s2,s2,255
     988:	8d1d                	sub	a0,a0,a5
     98a:	485c                	lw	a5,20(s0)
     98c:	00f54663          	blt	a0,a5,998 <__swbuf_r+0x52>
     990:	85a2                	mv	a1,s0
     992:	8526                	mv	a0,s1
     994:	2c69                	jal	c2e <_fflush_r>
     996:	e525                	bnez	a0,9fe <__swbuf_r+0xb8>
     998:	441c                	lw	a5,8(s0)
     99a:	0505                	addi	a0,a0,1
     99c:	17fd                	addi	a5,a5,-1
     99e:	c41c                	sw	a5,8(s0)
     9a0:	401c                	lw	a5,0(s0)
     9a2:	00178713          	addi	a4,a5,1
     9a6:	c018                	sw	a4,0(s0)
     9a8:	01378023          	sb	s3,0(a5)
     9ac:	485c                	lw	a5,20(s0)
     9ae:	00a78863          	beq	a5,a0,9be <__swbuf_r+0x78>
     9b2:	245e                	lhu	a5,12(s0)
     9b4:	8b85                	andi	a5,a5,1
     9b6:	cb81                	beqz	a5,9c6 <__swbuf_r+0x80>
     9b8:	47a9                	li	a5,10
     9ba:	00f91663          	bne	s2,a5,9c6 <__swbuf_r+0x80>
     9be:	85a2                	mv	a1,s0
     9c0:	8526                	mv	a0,s1
     9c2:	24b5                	jal	c2e <_fflush_r>
     9c4:	ed0d                	bnez	a0,9fe <__swbuf_r+0xb8>
     9c6:	40f2                	lw	ra,28(sp)
     9c8:	4462                	lw	s0,24(sp)
     9ca:	854a                	mv	a0,s2
     9cc:	44d2                	lw	s1,20(sp)
     9ce:	4942                	lw	s2,16(sp)
     9d0:	49b2                	lw	s3,12(sp)
     9d2:	6105                	addi	sp,sp,32
     9d4:	8082                	ret
     9d6:	00001797          	auipc	a5,0x1
     9da:	07e78793          	addi	a5,a5,126 # 1a54 <__sf_fake_stdout>
     9de:	00f41463          	bne	s0,a5,9e6 <__swbuf_r+0xa0>
     9e2:	4480                	lw	s0,8(s1)
     9e4:	b769                	j	96e <__swbuf_r+0x28>
     9e6:	00001797          	auipc	a5,0x1
     9ea:	02e78793          	addi	a5,a5,46 # 1a14 <__sf_fake_stderr>
     9ee:	f8f410e3          	bne	s0,a5,96e <__swbuf_r+0x28>
     9f2:	44c0                	lw	s0,12(s1)
     9f4:	bfad                	j	96e <__swbuf_r+0x28>
     9f6:	85a2                	mv	a1,s0
     9f8:	8526                	mv	a0,s1
     9fa:	2021                	jal	a02 <__swsetup_r>
     9fc:	d141                	beqz	a0,97c <__swbuf_r+0x36>
     9fe:	597d                	li	s2,-1
     a00:	b7d9                	j	9c6 <__swbuf_r+0x80>

00000a02 <__swsetup_r>:
     a02:	1141                	addi	sp,sp,-16
     a04:	80c18793          	addi	a5,gp,-2036 # 2000008c <_impure_ptr>
     a08:	c226                	sw	s1,4(sp)
     a0a:	4384                	lw	s1,0(a5)
     a0c:	c422                	sw	s0,8(sp)
     a0e:	c04a                	sw	s2,0(sp)
     a10:	c606                	sw	ra,12(sp)
     a12:	892a                	mv	s2,a0
     a14:	842e                	mv	s0,a1
     a16:	c489                	beqz	s1,a20 <__swsetup_r+0x1e>
     a18:	4c9c                	lw	a5,24(s1)
     a1a:	e399                	bnez	a5,a20 <__swsetup_r+0x1e>
     a1c:	8526                	mv	a0,s1
     a1e:	262d                	jal	d48 <__sinit>
     a20:	00001797          	auipc	a5,0x1
     a24:	01478793          	addi	a5,a5,20 # 1a34 <__sf_fake_stdin>
     a28:	02f41b63          	bne	s0,a5,a5e <__swsetup_r+0x5c>
     a2c:	40c0                	lw	s0,4(s1)
     a2e:	00c41703          	lh	a4,12(s0)
     a32:	01071793          	slli	a5,a4,0x10
     a36:	83c1                	srli	a5,a5,0x10
     a38:	0087f693          	andi	a3,a5,8
     a3c:	eaad                	bnez	a3,aae <__swsetup_r+0xac>
     a3e:	0107f693          	andi	a3,a5,16
     a42:	ee95                	bnez	a3,a7e <__swsetup_r+0x7c>
     a44:	47a5                	li	a5,9
     a46:	00f92023          	sw	a5,0(s2)
     a4a:	04076713          	ori	a4,a4,64
     a4e:	a45a                	sh	a4,12(s0)
     a50:	557d                	li	a0,-1
     a52:	40b2                	lw	ra,12(sp)
     a54:	4422                	lw	s0,8(sp)
     a56:	4492                	lw	s1,4(sp)
     a58:	4902                	lw	s2,0(sp)
     a5a:	0141                	addi	sp,sp,16
     a5c:	8082                	ret
     a5e:	00001797          	auipc	a5,0x1
     a62:	ff678793          	addi	a5,a5,-10 # 1a54 <__sf_fake_stdout>
     a66:	00f41463          	bne	s0,a5,a6e <__swsetup_r+0x6c>
     a6a:	4480                	lw	s0,8(s1)
     a6c:	b7c9                	j	a2e <__swsetup_r+0x2c>
     a6e:	00001797          	auipc	a5,0x1
     a72:	fa678793          	addi	a5,a5,-90 # 1a14 <__sf_fake_stderr>
     a76:	faf41ce3          	bne	s0,a5,a2e <__swsetup_r+0x2c>
     a7a:	44c0                	lw	s0,12(s1)
     a7c:	bf4d                	j	a2e <__swsetup_r+0x2c>
     a7e:	8b91                	andi	a5,a5,4
     a80:	c39d                	beqz	a5,aa6 <__swsetup_r+0xa4>
     a82:	584c                	lw	a1,52(s0)
     a84:	c989                	beqz	a1,a96 <__swsetup_r+0x94>
     a86:	04440793          	addi	a5,s0,68
     a8a:	00f58463          	beq	a1,a5,a92 <__swsetup_r+0x90>
     a8e:	854a                	mv	a0,s2
     a90:	2331                	jal	f9c <_free_r>
     a92:	02042a23          	sw	zero,52(s0)
     a96:	245e                	lhu	a5,12(s0)
     a98:	00042223          	sw	zero,4(s0)
     a9c:	fdb7f793          	andi	a5,a5,-37
     aa0:	a45e                	sh	a5,12(s0)
     aa2:	481c                	lw	a5,16(s0)
     aa4:	c01c                	sw	a5,0(s0)
     aa6:	245e                	lhu	a5,12(s0)
     aa8:	0087e793          	ori	a5,a5,8
     aac:	a45e                	sh	a5,12(s0)
     aae:	481c                	lw	a5,16(s0)
     ab0:	eb99                	bnez	a5,ac6 <__swsetup_r+0xc4>
     ab2:	245e                	lhu	a5,12(s0)
     ab4:	20000713          	li	a4,512
     ab8:	2807f793          	andi	a5,a5,640
     abc:	00e78563          	beq	a5,a4,ac6 <__swsetup_r+0xc4>
     ac0:	85a2                	mv	a1,s0
     ac2:	854a                	mv	a0,s2
     ac4:	21a1                	jal	f0c <__smakebuf_r>
     ac6:	245e                	lhu	a5,12(s0)
     ac8:	0017f713          	andi	a4,a5,1
     acc:	c31d                	beqz	a4,af2 <__swsetup_r+0xf0>
     ace:	485c                	lw	a5,20(s0)
     ad0:	00042423          	sw	zero,8(s0)
     ad4:	40f007b3          	neg	a5,a5
     ad8:	cc1c                	sw	a5,24(s0)
     ada:	481c                	lw	a5,16(s0)
     adc:	4501                	li	a0,0
     ade:	fbb5                	bnez	a5,a52 <__swsetup_r+0x50>
     ae0:	00c41783          	lh	a5,12(s0)
     ae4:	0807f713          	andi	a4,a5,128
     ae8:	d72d                	beqz	a4,a52 <__swsetup_r+0x50>
     aea:	0407e793          	ori	a5,a5,64
     aee:	a45e                	sh	a5,12(s0)
     af0:	b785                	j	a50 <__swsetup_r+0x4e>
     af2:	8b89                	andi	a5,a5,2
     af4:	4701                	li	a4,0
     af6:	e391                	bnez	a5,afa <__swsetup_r+0xf8>
     af8:	4858                	lw	a4,20(s0)
     afa:	c418                	sw	a4,8(s0)
     afc:	bff9                	j	ada <__swsetup_r+0xd8>

00000afe <__sflush_r>:
     afe:	25de                	lhu	a5,12(a1)
     b00:	1101                	addi	sp,sp,-32
     b02:	cc22                	sw	s0,24(sp)
     b04:	ca26                	sw	s1,20(sp)
     b06:	ce06                	sw	ra,28(sp)
     b08:	c84a                	sw	s2,16(sp)
     b0a:	c64e                	sw	s3,12(sp)
     b0c:	0087f713          	andi	a4,a5,8
     b10:	84aa                	mv	s1,a0
     b12:	842e                	mv	s0,a1
     b14:	eb79                	bnez	a4,bea <__sflush_r+0xec>
     b16:	41d8                	lw	a4,4(a1)
     b18:	00e04d63          	bgtz	a4,b32 <__sflush_r+0x34>
     b1c:	41b8                	lw	a4,64(a1)
     b1e:	00e04a63          	bgtz	a4,b32 <__sflush_r+0x34>
     b22:	4501                	li	a0,0
     b24:	40f2                	lw	ra,28(sp)
     b26:	4462                	lw	s0,24(sp)
     b28:	44d2                	lw	s1,20(sp)
     b2a:	4942                	lw	s2,16(sp)
     b2c:	49b2                	lw	s3,12(sp)
     b2e:	6105                	addi	sp,sp,32
     b30:	8082                	ret
     b32:	5458                	lw	a4,44(s0)
     b34:	d77d                	beqz	a4,b22 <__sflush_r+0x24>
     b36:	0004a903          	lw	s2,0(s1)
     b3a:	01379693          	slli	a3,a5,0x13
     b3e:	0004a023          	sw	zero,0(s1)
     b42:	0606db63          	bgez	a3,bb8 <__sflush_r+0xba>
     b46:	4870                	lw	a2,84(s0)
     b48:	245e                	lhu	a5,12(s0)
     b4a:	8b91                	andi	a5,a5,4
     b4c:	c799                	beqz	a5,b5a <__sflush_r+0x5c>
     b4e:	405c                	lw	a5,4(s0)
     b50:	8e1d                	sub	a2,a2,a5
     b52:	585c                	lw	a5,52(s0)
     b54:	c399                	beqz	a5,b5a <__sflush_r+0x5c>
     b56:	403c                	lw	a5,64(s0)
     b58:	8e1d                	sub	a2,a2,a5
     b5a:	545c                	lw	a5,44(s0)
     b5c:	500c                	lw	a1,32(s0)
     b5e:	4681                	li	a3,0
     b60:	8526                	mv	a0,s1
     b62:	9782                	jalr	a5
     b64:	57fd                	li	a5,-1
     b66:	245a                	lhu	a4,12(s0)
     b68:	00f51d63          	bne	a0,a5,b82 <__sflush_r+0x84>
     b6c:	4094                	lw	a3,0(s1)
     b6e:	47f5                	li	a5,29
     b70:	06d7e863          	bltu	a5,a3,be0 <__sflush_r+0xe2>
     b74:	204007b7          	lui	a5,0x20400
     b78:	0785                	addi	a5,a5,1
     b7a:	00d7d7b3          	srl	a5,a5,a3
     b7e:	8b85                	andi	a5,a5,1
     b80:	c3a5                	beqz	a5,be0 <__sflush_r+0xe2>
     b82:	481c                	lw	a5,16(s0)
     b84:	00042223          	sw	zero,4(s0)
     b88:	c01c                	sw	a5,0(s0)
     b8a:	01371793          	slli	a5,a4,0x13
     b8e:	0007d863          	bgez	a5,b9e <__sflush_r+0xa0>
     b92:	57fd                	li	a5,-1
     b94:	00f51463          	bne	a0,a5,b9c <__sflush_r+0x9e>
     b98:	409c                	lw	a5,0(s1)
     b9a:	e391                	bnez	a5,b9e <__sflush_r+0xa0>
     b9c:	c868                	sw	a0,84(s0)
     b9e:	584c                	lw	a1,52(s0)
     ba0:	0124a023          	sw	s2,0(s1)
     ba4:	ddbd                	beqz	a1,b22 <__sflush_r+0x24>
     ba6:	04440793          	addi	a5,s0,68
     baa:	00f58463          	beq	a1,a5,bb2 <__sflush_r+0xb4>
     bae:	8526                	mv	a0,s1
     bb0:	26f5                	jal	f9c <_free_r>
     bb2:	02042a23          	sw	zero,52(s0)
     bb6:	b7b5                	j	b22 <__sflush_r+0x24>
     bb8:	500c                	lw	a1,32(s0)
     bba:	4601                	li	a2,0
     bbc:	4685                	li	a3,1
     bbe:	8526                	mv	a0,s1
     bc0:	9702                	jalr	a4
     bc2:	57fd                	li	a5,-1
     bc4:	862a                	mv	a2,a0
     bc6:	f8f511e3          	bne	a0,a5,b48 <__sflush_r+0x4a>
     bca:	409c                	lw	a5,0(s1)
     bcc:	dfb5                	beqz	a5,b48 <__sflush_r+0x4a>
     bce:	4775                	li	a4,29
     bd0:	00e78563          	beq	a5,a4,bda <__sflush_r+0xdc>
     bd4:	4759                	li	a4,22
     bd6:	04e79363          	bne	a5,a4,c1c <__sflush_r+0x11e>
     bda:	0124a023          	sw	s2,0(s1)
     bde:	b791                	j	b22 <__sflush_r+0x24>
     be0:	04076713          	ori	a4,a4,64
     be4:	a45a                	sh	a4,12(s0)
     be6:	557d                	li	a0,-1
     be8:	bf35                	j	b24 <__sflush_r+0x26>
     bea:	0105a983          	lw	s3,16(a1)
     bee:	f2098ae3          	beqz	s3,b22 <__sflush_r+0x24>
     bf2:	0005a903          	lw	s2,0(a1)
     bf6:	8b8d                	andi	a5,a5,3
     bf8:	0135a023          	sw	s3,0(a1)
     bfc:	41390933          	sub	s2,s2,s3
     c00:	4701                	li	a4,0
     c02:	e391                	bnez	a5,c06 <__sflush_r+0x108>
     c04:	49d8                	lw	a4,20(a1)
     c06:	c418                	sw	a4,8(s0)
     c08:	f1205de3          	blez	s2,b22 <__sflush_r+0x24>
     c0c:	541c                	lw	a5,40(s0)
     c0e:	500c                	lw	a1,32(s0)
     c10:	86ca                	mv	a3,s2
     c12:	864e                	mv	a2,s3
     c14:	8526                	mv	a0,s1
     c16:	9782                	jalr	a5
     c18:	00a04763          	bgtz	a0,c26 <__sflush_r+0x128>
     c1c:	245e                	lhu	a5,12(s0)
     c1e:	0407e793          	ori	a5,a5,64
     c22:	a45e                	sh	a5,12(s0)
     c24:	b7c9                	j	be6 <__sflush_r+0xe8>
     c26:	99aa                	add	s3,s3,a0
     c28:	40a90933          	sub	s2,s2,a0
     c2c:	bff1                	j	c08 <__sflush_r+0x10a>

00000c2e <_fflush_r>:
     c2e:	499c                	lw	a5,16(a1)
     c30:	cfb9                	beqz	a5,c8e <_fflush_r+0x60>
     c32:	1101                	addi	sp,sp,-32
     c34:	cc22                	sw	s0,24(sp)
     c36:	ce06                	sw	ra,28(sp)
     c38:	842a                	mv	s0,a0
     c3a:	c511                	beqz	a0,c46 <_fflush_r+0x18>
     c3c:	4d1c                	lw	a5,24(a0)
     c3e:	e781                	bnez	a5,c46 <_fflush_r+0x18>
     c40:	c62e                	sw	a1,12(sp)
     c42:	2219                	jal	d48 <__sinit>
     c44:	45b2                	lw	a1,12(sp)
     c46:	00001797          	auipc	a5,0x1
     c4a:	dee78793          	addi	a5,a5,-530 # 1a34 <__sf_fake_stdin>
     c4e:	00f59b63          	bne	a1,a5,c64 <_fflush_r+0x36>
     c52:	404c                	lw	a1,4(s0)
     c54:	00c59783          	lh	a5,12(a1)
     c58:	c795                	beqz	a5,c84 <_fflush_r+0x56>
     c5a:	8522                	mv	a0,s0
     c5c:	4462                	lw	s0,24(sp)
     c5e:	40f2                	lw	ra,28(sp)
     c60:	6105                	addi	sp,sp,32
     c62:	bd71                	j	afe <__sflush_r>
     c64:	00001797          	auipc	a5,0x1
     c68:	df078793          	addi	a5,a5,-528 # 1a54 <__sf_fake_stdout>
     c6c:	00f59463          	bne	a1,a5,c74 <_fflush_r+0x46>
     c70:	440c                	lw	a1,8(s0)
     c72:	b7cd                	j	c54 <_fflush_r+0x26>
     c74:	00001797          	auipc	a5,0x1
     c78:	da078793          	addi	a5,a5,-608 # 1a14 <__sf_fake_stderr>
     c7c:	fcf59ce3          	bne	a1,a5,c54 <_fflush_r+0x26>
     c80:	444c                	lw	a1,12(s0)
     c82:	bfc9                	j	c54 <_fflush_r+0x26>
     c84:	40f2                	lw	ra,28(sp)
     c86:	4462                	lw	s0,24(sp)
     c88:	4501                	li	a0,0
     c8a:	6105                	addi	sp,sp,32
     c8c:	8082                	ret
     c8e:	4501                	li	a0,0
     c90:	8082                	ret

00000c92 <std>:
     c92:	1141                	addi	sp,sp,-16
     c94:	c422                	sw	s0,8(sp)
     c96:	c606                	sw	ra,12(sp)
     c98:	842a                	mv	s0,a0
     c9a:	a54e                	sh	a1,12(a0)
     c9c:	a572                	sh	a2,14(a0)
     c9e:	00052023          	sw	zero,0(a0)
     ca2:	00052223          	sw	zero,4(a0)
     ca6:	00052423          	sw	zero,8(a0)
     caa:	06052223          	sw	zero,100(a0)
     cae:	00052823          	sw	zero,16(a0)
     cb2:	00052a23          	sw	zero,20(a0)
     cb6:	00052c23          	sw	zero,24(a0)
     cba:	4621                	li	a2,8
     cbc:	4581                	li	a1,0
     cbe:	05c50513          	addi	a0,a0,92
     cc2:	c9eff0ef          	jal	ra,160 <memset>
     cc6:	00001797          	auipc	a5,0x1
     cca:	b1478793          	addi	a5,a5,-1260 # 17da <__sread>
     cce:	d05c                	sw	a5,36(s0)
     cd0:	00001797          	auipc	a5,0x1
     cd4:	b3678793          	addi	a5,a5,-1226 # 1806 <__swrite>
     cd8:	d41c                	sw	a5,40(s0)
     cda:	00001797          	auipc	a5,0x1
     cde:	b7478793          	addi	a5,a5,-1164 # 184e <__sseek>
     ce2:	d45c                	sw	a5,44(s0)
     ce4:	00001797          	auipc	a5,0x1
     ce8:	b9a78793          	addi	a5,a5,-1126 # 187e <__sclose>
     cec:	d000                	sw	s0,32(s0)
     cee:	d81c                	sw	a5,48(s0)
     cf0:	40b2                	lw	ra,12(sp)
     cf2:	4422                	lw	s0,8(sp)
     cf4:	0141                	addi	sp,sp,16
     cf6:	8082                	ret

00000cf8 <_cleanup_r>:
     cf8:	00000597          	auipc	a1,0x0
     cfc:	f3658593          	addi	a1,a1,-202 # c2e <_fflush_r>
     d00:	a2a9                	j	e4a <_fwalk_reent>

00000d02 <__sfmoreglue>:
     d02:	1141                	addi	sp,sp,-16
     d04:	c226                	sw	s1,4(sp)
     d06:	06800613          	li	a2,104
     d0a:	fff58493          	addi	s1,a1,-1
     d0e:	02c484b3          	mul	s1,s1,a2
     d12:	c04a                	sw	s2,0(sp)
     d14:	892e                	mv	s2,a1
     d16:	c422                	sw	s0,8(sp)
     d18:	c606                	sw	ra,12(sp)
     d1a:	07448593          	addi	a1,s1,116
     d1e:	261d                	jal	1044 <_malloc_r>
     d20:	842a                	mv	s0,a0
     d22:	cd01                	beqz	a0,d3a <__sfmoreglue+0x38>
     d24:	00052023          	sw	zero,0(a0)
     d28:	01252223          	sw	s2,4(a0)
     d2c:	0531                	addi	a0,a0,12
     d2e:	c408                	sw	a0,8(s0)
     d30:	06848613          	addi	a2,s1,104
     d34:	4581                	li	a1,0
     d36:	c2aff0ef          	jal	ra,160 <memset>
     d3a:	8522                	mv	a0,s0
     d3c:	40b2                	lw	ra,12(sp)
     d3e:	4422                	lw	s0,8(sp)
     d40:	4492                	lw	s1,4(sp)
     d42:	4902                	lw	s2,0(sp)
     d44:	0141                	addi	sp,sp,16
     d46:	8082                	ret

00000d48 <__sinit>:
     d48:	4d1c                	lw	a5,24(a0)
     d4a:	e3ad                	bnez	a5,dac <__sinit+0x64>
     d4c:	1141                	addi	sp,sp,-16
     d4e:	c606                	sw	ra,12(sp)
     d50:	c422                	sw	s0,8(sp)
     d52:	00000797          	auipc	a5,0x0
     d56:	fa678793          	addi	a5,a5,-90 # cf8 <_cleanup_r>
     d5a:	d51c                	sw	a5,40(a0)
     d5c:	81018793          	addi	a5,gp,-2032 # 20000090 <_global_impure_ptr>
     d60:	439c                	lw	a5,0(a5)
     d62:	04052423          	sw	zero,72(a0)
     d66:	04052623          	sw	zero,76(a0)
     d6a:	04052823          	sw	zero,80(a0)
     d6e:	00f51463          	bne	a0,a5,d76 <__sinit+0x2e>
     d72:	4785                	li	a5,1
     d74:	cd1c                	sw	a5,24(a0)
     d76:	842a                	mv	s0,a0
     d78:	281d                	jal	dae <__sfp>
     d7a:	c048                	sw	a0,4(s0)
     d7c:	8522                	mv	a0,s0
     d7e:	2805                	jal	dae <__sfp>
     d80:	c408                	sw	a0,8(s0)
     d82:	8522                	mv	a0,s0
     d84:	202d                	jal	dae <__sfp>
     d86:	c448                	sw	a0,12(s0)
     d88:	4048                	lw	a0,4(s0)
     d8a:	4601                	li	a2,0
     d8c:	4591                	li	a1,4
     d8e:	3711                	jal	c92 <std>
     d90:	4408                	lw	a0,8(s0)
     d92:	4605                	li	a2,1
     d94:	45a5                	li	a1,9
     d96:	3df5                	jal	c92 <std>
     d98:	4448                	lw	a0,12(s0)
     d9a:	4609                	li	a2,2
     d9c:	45c9                	li	a1,18
     d9e:	3dd5                	jal	c92 <std>
     da0:	4785                	li	a5,1
     da2:	cc1c                	sw	a5,24(s0)
     da4:	40b2                	lw	ra,12(sp)
     da6:	4422                	lw	s0,8(sp)
     da8:	0141                	addi	sp,sp,16
     daa:	8082                	ret
     dac:	8082                	ret

00000dae <__sfp>:
     dae:	1141                	addi	sp,sp,-16
     db0:	81018793          	addi	a5,gp,-2032 # 20000090 <_global_impure_ptr>
     db4:	c226                	sw	s1,4(sp)
     db6:	4384                	lw	s1,0(a5)
     db8:	c04a                	sw	s2,0(sp)
     dba:	c606                	sw	ra,12(sp)
     dbc:	4c9c                	lw	a5,24(s1)
     dbe:	c422                	sw	s0,8(sp)
     dc0:	892a                	mv	s2,a0
     dc2:	e399                	bnez	a5,dc8 <__sfp+0x1a>
     dc4:	8526                	mv	a0,s1
     dc6:	3749                	jal	d48 <__sinit>
     dc8:	04848493          	addi	s1,s1,72
     dcc:	4480                	lw	s0,8(s1)
     dce:	40dc                	lw	a5,4(s1)
     dd0:	17fd                	addi	a5,a5,-1
     dd2:	0007d663          	bgez	a5,dde <__sfp+0x30>
     dd6:	409c                	lw	a5,0(s1)
     dd8:	cfb9                	beqz	a5,e36 <__sfp+0x88>
     dda:	4084                	lw	s1,0(s1)
     ddc:	bfc5                	j	dcc <__sfp+0x1e>
     dde:	00c41703          	lh	a4,12(s0)
     de2:	e739                	bnez	a4,e30 <__sfp+0x82>
     de4:	77c1                	lui	a5,0xffff0
     de6:	0785                	addi	a5,a5,1
     de8:	06042223          	sw	zero,100(s0)
     dec:	00042023          	sw	zero,0(s0)
     df0:	00042223          	sw	zero,4(s0)
     df4:	00042423          	sw	zero,8(s0)
     df8:	c45c                	sw	a5,12(s0)
     dfa:	00042823          	sw	zero,16(s0)
     dfe:	00042a23          	sw	zero,20(s0)
     e02:	00042c23          	sw	zero,24(s0)
     e06:	4621                	li	a2,8
     e08:	4581                	li	a1,0
     e0a:	05c40513          	addi	a0,s0,92
     e0e:	b52ff0ef          	jal	ra,160 <memset>
     e12:	02042a23          	sw	zero,52(s0)
     e16:	02042c23          	sw	zero,56(s0)
     e1a:	04042423          	sw	zero,72(s0)
     e1e:	04042623          	sw	zero,76(s0)
     e22:	8522                	mv	a0,s0
     e24:	40b2                	lw	ra,12(sp)
     e26:	4422                	lw	s0,8(sp)
     e28:	4492                	lw	s1,4(sp)
     e2a:	4902                	lw	s2,0(sp)
     e2c:	0141                	addi	sp,sp,16
     e2e:	8082                	ret
     e30:	06840413          	addi	s0,s0,104
     e34:	bf71                	j	dd0 <__sfp+0x22>
     e36:	4591                	li	a1,4
     e38:	854a                	mv	a0,s2
     e3a:	35e1                	jal	d02 <__sfmoreglue>
     e3c:	c088                	sw	a0,0(s1)
     e3e:	fd51                	bnez	a0,dda <__sfp+0x2c>
     e40:	47b1                	li	a5,12
     e42:	00f92023          	sw	a5,0(s2)
     e46:	4401                	li	s0,0
     e48:	bfe9                	j	e22 <__sfp+0x74>

00000e4a <_fwalk_reent>:
     e4a:	7179                	addi	sp,sp,-48
     e4c:	d422                	sw	s0,40(sp)
     e4e:	d04a                	sw	s2,32(sp)
     e50:	cc52                	sw	s4,24(sp)
     e52:	ca56                	sw	s5,20(sp)
     e54:	c85a                	sw	s6,16(sp)
     e56:	c65e                	sw	s7,12(sp)
     e58:	d606                	sw	ra,44(sp)
     e5a:	d226                	sw	s1,36(sp)
     e5c:	ce4e                	sw	s3,28(sp)
     e5e:	8a2a                	mv	s4,a0
     e60:	8aae                	mv	s5,a1
     e62:	04850413          	addi	s0,a0,72
     e66:	4901                	li	s2,0
     e68:	4b05                	li	s6,1
     e6a:	5bfd                	li	s7,-1
     e6c:	ec09                	bnez	s0,e86 <_fwalk_reent+0x3c>
     e6e:	50b2                	lw	ra,44(sp)
     e70:	5422                	lw	s0,40(sp)
     e72:	854a                	mv	a0,s2
     e74:	5492                	lw	s1,36(sp)
     e76:	5902                	lw	s2,32(sp)
     e78:	49f2                	lw	s3,28(sp)
     e7a:	4a62                	lw	s4,24(sp)
     e7c:	4ad2                	lw	s5,20(sp)
     e7e:	4b42                	lw	s6,16(sp)
     e80:	4bb2                	lw	s7,12(sp)
     e82:	6145                	addi	sp,sp,48
     e84:	8082                	ret
     e86:	4404                	lw	s1,8(s0)
     e88:	00442983          	lw	s3,4(s0)
     e8c:	19fd                	addi	s3,s3,-1
     e8e:	0009d463          	bgez	s3,e96 <_fwalk_reent+0x4c>
     e92:	4000                	lw	s0,0(s0)
     e94:	bfe1                	j	e6c <_fwalk_reent+0x22>
     e96:	24de                	lhu	a5,12(s1)
     e98:	00fb7b63          	bgeu	s6,a5,eae <_fwalk_reent+0x64>
     e9c:	00e49783          	lh	a5,14(s1)
     ea0:	01778763          	beq	a5,s7,eae <_fwalk_reent+0x64>
     ea4:	85a6                	mv	a1,s1
     ea6:	8552                	mv	a0,s4
     ea8:	9a82                	jalr	s5
     eaa:	00a96933          	or	s2,s2,a0
     eae:	06848493          	addi	s1,s1,104
     eb2:	bfe9                	j	e8c <_fwalk_reent+0x42>

00000eb4 <__swhatbuf_r>:
     eb4:	7119                	addi	sp,sp,-128
     eb6:	daa6                	sw	s1,116(sp)
     eb8:	84ae                	mv	s1,a1
     eba:	00e59583          	lh	a1,14(a1)
     ebe:	dca2                	sw	s0,120(sp)
     ec0:	de86                	sw	ra,124(sp)
     ec2:	8432                	mv	s0,a2
     ec4:	0005db63          	bgez	a1,eda <__swhatbuf_r+0x26>
     ec8:	24de                	lhu	a5,12(s1)
     eca:	0006a023          	sw	zero,0(a3) # 10000 <__fsymtab_end+0xe550>
     ece:	0807f793          	andi	a5,a5,128
     ed2:	e785                	bnez	a5,efa <__swhatbuf_r+0x46>
     ed4:	40000793          	li	a5,1024
     ed8:	a01d                	j	efe <__swhatbuf_r+0x4a>
     eda:	0830                	addi	a2,sp,24
     edc:	c636                	sw	a3,12(sp)
     ede:	1fd000ef          	jal	ra,18da <_fstat_r>
     ee2:	46b2                	lw	a3,12(sp)
     ee4:	fe0542e3          	bltz	a0,ec8 <__swhatbuf_r+0x14>
     ee8:	4772                	lw	a4,28(sp)
     eea:	67bd                	lui	a5,0xf
     eec:	8ff9                	and	a5,a5,a4
     eee:	7779                	lui	a4,0xffffe
     ef0:	97ba                	add	a5,a5,a4
     ef2:	0017b793          	seqz	a5,a5
     ef6:	c29c                	sw	a5,0(a3)
     ef8:	bff1                	j	ed4 <__swhatbuf_r+0x20>
     efa:	04000793          	li	a5,64
     efe:	c01c                	sw	a5,0(s0)
     f00:	50f6                	lw	ra,124(sp)
     f02:	5466                	lw	s0,120(sp)
     f04:	54d6                	lw	s1,116(sp)
     f06:	4501                	li	a0,0
     f08:	6109                	addi	sp,sp,128
     f0a:	8082                	ret

00000f0c <__smakebuf_r>:
     f0c:	25de                	lhu	a5,12(a1)
     f0e:	1101                	addi	sp,sp,-32
     f10:	cc22                	sw	s0,24(sp)
     f12:	ce06                	sw	ra,28(sp)
     f14:	ca26                	sw	s1,20(sp)
     f16:	c84a                	sw	s2,16(sp)
     f18:	8b89                	andi	a5,a5,2
     f1a:	842e                	mv	s0,a1
     f1c:	cf89                	beqz	a5,f36 <__smakebuf_r+0x2a>
     f1e:	04740793          	addi	a5,s0,71
     f22:	c01c                	sw	a5,0(s0)
     f24:	c81c                	sw	a5,16(s0)
     f26:	4785                	li	a5,1
     f28:	c85c                	sw	a5,20(s0)
     f2a:	40f2                	lw	ra,28(sp)
     f2c:	4462                	lw	s0,24(sp)
     f2e:	44d2                	lw	s1,20(sp)
     f30:	4942                	lw	s2,16(sp)
     f32:	6105                	addi	sp,sp,32
     f34:	8082                	ret
     f36:	0074                	addi	a3,sp,12
     f38:	0030                	addi	a2,sp,8
     f3a:	84aa                	mv	s1,a0
     f3c:	3fa5                	jal	eb4 <__swhatbuf_r>
     f3e:	45a2                	lw	a1,8(sp)
     f40:	892a                	mv	s2,a0
     f42:	8526                	mv	a0,s1
     f44:	2201                	jal	1044 <_malloc_r>
     f46:	e919                	bnez	a0,f5c <__smakebuf_r+0x50>
     f48:	00c41783          	lh	a5,12(s0)
     f4c:	2007f713          	andi	a4,a5,512
     f50:	ff69                	bnez	a4,f2a <__smakebuf_r+0x1e>
     f52:	9bf1                	andi	a5,a5,-4
     f54:	0027e793          	ori	a5,a5,2
     f58:	a45e                	sh	a5,12(s0)
     f5a:	b7d1                	j	f1e <__smakebuf_r+0x12>
     f5c:	00000797          	auipc	a5,0x0
     f60:	d9c78793          	addi	a5,a5,-612 # cf8 <_cleanup_r>
     f64:	d49c                	sw	a5,40(s1)
     f66:	245e                	lhu	a5,12(s0)
     f68:	c008                	sw	a0,0(s0)
     f6a:	c808                	sw	a0,16(s0)
     f6c:	0807e793          	ori	a5,a5,128
     f70:	a45e                	sh	a5,12(s0)
     f72:	47a2                	lw	a5,8(sp)
     f74:	c85c                	sw	a5,20(s0)
     f76:	47b2                	lw	a5,12(sp)
     f78:	cf81                	beqz	a5,f90 <__smakebuf_r+0x84>
     f7a:	00e41583          	lh	a1,14(s0)
     f7e:	8526                	mv	a0,s1
     f80:	185000ef          	jal	ra,1904 <_isatty_r>
     f84:	c511                	beqz	a0,f90 <__smakebuf_r+0x84>
     f86:	245e                	lhu	a5,12(s0)
     f88:	9bf1                	andi	a5,a5,-4
     f8a:	0017e793          	ori	a5,a5,1
     f8e:	a45e                	sh	a5,12(s0)
     f90:	245e                	lhu	a5,12(s0)
     f92:	00f96933          	or	s2,s2,a5
     f96:	01241623          	sh	s2,12(s0)
     f9a:	bf41                	j	f2a <__smakebuf_r+0x1e>

00000f9c <_free_r>:
     f9c:	c1dd                	beqz	a1,1042 <_free_r+0xa6>
     f9e:	ffc5a783          	lw	a5,-4(a1)
     fa2:	1141                	addi	sp,sp,-16
     fa4:	c422                	sw	s0,8(sp)
     fa6:	c606                	sw	ra,12(sp)
     fa8:	c226                	sw	s1,4(sp)
     faa:	ffc58413          	addi	s0,a1,-4
     fae:	0007d363          	bgez	a5,fb4 <_free_r+0x18>
     fb2:	943e                	add	s0,s0,a5
     fb4:	84aa                	mv	s1,a0
     fb6:	1bb000ef          	jal	ra,1970 <__malloc_lock>
     fba:	82018793          	addi	a5,gp,-2016 # 200000a0 <__malloc_free_list>
     fbe:	439c                	lw	a5,0(a5)
     fc0:	ef81                	bnez	a5,fd8 <_free_r+0x3c>
     fc2:	00042223          	sw	zero,4(s0)
     fc6:	8281a023          	sw	s0,-2016(gp) # 200000a0 <__malloc_free_list>
     fca:	4422                	lw	s0,8(sp)
     fcc:	40b2                	lw	ra,12(sp)
     fce:	8526                	mv	a0,s1
     fd0:	4492                	lw	s1,4(sp)
     fd2:	0141                	addi	sp,sp,16
     fd4:	19f0006f          	j	1972 <__malloc_unlock>
     fd8:	00f47e63          	bgeu	s0,a5,ff4 <_free_r+0x58>
     fdc:	4014                	lw	a3,0(s0)
     fde:	00d40733          	add	a4,s0,a3
     fe2:	00e79663          	bne	a5,a4,fee <_free_r+0x52>
     fe6:	4398                	lw	a4,0(a5)
     fe8:	43dc                	lw	a5,4(a5)
     fea:	9736                	add	a4,a4,a3
     fec:	c018                	sw	a4,0(s0)
     fee:	c05c                	sw	a5,4(s0)
     ff0:	bfd9                	j	fc6 <_free_r+0x2a>
     ff2:	87ba                	mv	a5,a4
     ff4:	43d8                	lw	a4,4(a5)
     ff6:	c319                	beqz	a4,ffc <_free_r+0x60>
     ff8:	fee47de3          	bgeu	s0,a4,ff2 <_free_r+0x56>
     ffc:	4394                	lw	a3,0(a5)
     ffe:	00d78633          	add	a2,a5,a3
    1002:	00861f63          	bne	a2,s0,1020 <_free_r+0x84>
    1006:	4010                	lw	a2,0(s0)
    1008:	96b2                	add	a3,a3,a2
    100a:	c394                	sw	a3,0(a5)
    100c:	00d78633          	add	a2,a5,a3
    1010:	fac71de3          	bne	a4,a2,fca <_free_r+0x2e>
    1014:	4310                	lw	a2,0(a4)
    1016:	4358                	lw	a4,4(a4)
    1018:	96b2                	add	a3,a3,a2
    101a:	c394                	sw	a3,0(a5)
    101c:	c3d8                	sw	a4,4(a5)
    101e:	b775                	j	fca <_free_r+0x2e>
    1020:	00c47563          	bgeu	s0,a2,102a <_free_r+0x8e>
    1024:	47b1                	li	a5,12
    1026:	c09c                	sw	a5,0(s1)
    1028:	b74d                	j	fca <_free_r+0x2e>
    102a:	4010                	lw	a2,0(s0)
    102c:	00c406b3          	add	a3,s0,a2
    1030:	00d71663          	bne	a4,a3,103c <_free_r+0xa0>
    1034:	4314                	lw	a3,0(a4)
    1036:	4358                	lw	a4,4(a4)
    1038:	96b2                	add	a3,a3,a2
    103a:	c014                	sw	a3,0(s0)
    103c:	c058                	sw	a4,4(s0)
    103e:	c3c0                	sw	s0,4(a5)
    1040:	b769                	j	fca <_free_r+0x2e>
    1042:	8082                	ret

00001044 <_malloc_r>:
    1044:	1101                	addi	sp,sp,-32
    1046:	ca26                	sw	s1,20(sp)
    1048:	00358493          	addi	s1,a1,3
    104c:	98f1                	andi	s1,s1,-4
    104e:	ce06                	sw	ra,28(sp)
    1050:	cc22                	sw	s0,24(sp)
    1052:	c84a                	sw	s2,16(sp)
    1054:	c64e                	sw	s3,12(sp)
    1056:	04a1                	addi	s1,s1,8
    1058:	47b1                	li	a5,12
    105a:	04f4f363          	bgeu	s1,a5,10a0 <_malloc_r+0x5c>
    105e:	44b1                	li	s1,12
    1060:	04b4e263          	bltu	s1,a1,10a4 <_malloc_r+0x60>
    1064:	892a                	mv	s2,a0
    1066:	10b000ef          	jal	ra,1970 <__malloc_lock>
    106a:	82018793          	addi	a5,gp,-2016 # 200000a0 <__malloc_free_list>
    106e:	4398                	lw	a4,0(a5)
    1070:	843a                	mv	s0,a4
    1072:	e039                	bnez	s0,10b8 <_malloc_r+0x74>
    1074:	82418793          	addi	a5,gp,-2012 # 200000a4 <__malloc_sbrk_start>
    1078:	439c                	lw	a5,0(a5)
    107a:	e791                	bnez	a5,1086 <_malloc_r+0x42>
    107c:	4581                	li	a1,0
    107e:	854a                	mv	a0,s2
    1080:	2f05                	jal	17b0 <_sbrk_r>
    1082:	82a1a223          	sw	a0,-2012(gp) # 200000a4 <__malloc_sbrk_start>
    1086:	85a6                	mv	a1,s1
    1088:	854a                	mv	a0,s2
    108a:	271d                	jal	17b0 <_sbrk_r>
    108c:	59fd                	li	s3,-1
    108e:	07351963          	bne	a0,s3,1100 <_malloc_r+0xbc>
    1092:	47b1                	li	a5,12
    1094:	00f92023          	sw	a5,0(s2)
    1098:	854a                	mv	a0,s2
    109a:	0d9000ef          	jal	ra,1972 <__malloc_unlock>
    109e:	a029                	j	10a8 <_malloc_r+0x64>
    10a0:	fc04d0e3          	bgez	s1,1060 <_malloc_r+0x1c>
    10a4:	47b1                	li	a5,12
    10a6:	c11c                	sw	a5,0(a0)
    10a8:	4501                	li	a0,0
    10aa:	40f2                	lw	ra,28(sp)
    10ac:	4462                	lw	s0,24(sp)
    10ae:	44d2                	lw	s1,20(sp)
    10b0:	4942                	lw	s2,16(sp)
    10b2:	49b2                	lw	s3,12(sp)
    10b4:	6105                	addi	sp,sp,32
    10b6:	8082                	ret
    10b8:	401c                	lw	a5,0(s0)
    10ba:	8f85                	sub	a5,a5,s1
    10bc:	0207cf63          	bltz	a5,10fa <_malloc_r+0xb6>
    10c0:	46ad                	li	a3,11
    10c2:	00f6f663          	bgeu	a3,a5,10ce <_malloc_r+0x8a>
    10c6:	c01c                	sw	a5,0(s0)
    10c8:	943e                	add	s0,s0,a5
    10ca:	c004                	sw	s1,0(s0)
    10cc:	a031                	j	10d8 <_malloc_r+0x94>
    10ce:	405c                	lw	a5,4(s0)
    10d0:	02871363          	bne	a4,s0,10f6 <_malloc_r+0xb2>
    10d4:	82f1a023          	sw	a5,-2016(gp) # 200000a0 <__malloc_free_list>
    10d8:	854a                	mv	a0,s2
    10da:	099000ef          	jal	ra,1972 <__malloc_unlock>
    10de:	00b40513          	addi	a0,s0,11
    10e2:	00440793          	addi	a5,s0,4
    10e6:	9961                	andi	a0,a0,-8
    10e8:	40f50733          	sub	a4,a0,a5
    10ec:	df5d                	beqz	a4,10aa <_malloc_r+0x66>
    10ee:	943a                	add	s0,s0,a4
    10f0:	8f89                	sub	a5,a5,a0
    10f2:	c01c                	sw	a5,0(s0)
    10f4:	bf5d                	j	10aa <_malloc_r+0x66>
    10f6:	c35c                	sw	a5,4(a4)
    10f8:	b7c5                	j	10d8 <_malloc_r+0x94>
    10fa:	8722                	mv	a4,s0
    10fc:	4040                	lw	s0,4(s0)
    10fe:	bf95                	j	1072 <_malloc_r+0x2e>
    1100:	00350413          	addi	s0,a0,3
    1104:	9871                	andi	s0,s0,-4
    1106:	fc8502e3          	beq	a0,s0,10ca <_malloc_r+0x86>
    110a:	40a405b3          	sub	a1,s0,a0
    110e:	854a                	mv	a0,s2
    1110:	2545                	jal	17b0 <_sbrk_r>
    1112:	fb351ce3          	bne	a0,s3,10ca <_malloc_r+0x86>
    1116:	bfb5                	j	1092 <_malloc_r+0x4e>

00001118 <__sfputc_r>:
    1118:	461c                	lw	a5,8(a2)
    111a:	17fd                	addi	a5,a5,-1
    111c:	c61c                	sw	a5,8(a2)
    111e:	0007da63          	bgez	a5,1132 <__sfputc_r+0x1a>
    1122:	4e18                	lw	a4,24(a2)
    1124:	00e7c563          	blt	a5,a4,112e <__sfputc_r+0x16>
    1128:	47a9                	li	a5,10
    112a:	00f59463          	bne	a1,a5,1132 <__sfputc_r+0x1a>
    112e:	819ff06f          	j	946 <__swbuf_r>
    1132:	421c                	lw	a5,0(a2)
    1134:	852e                	mv	a0,a1
    1136:	00178713          	addi	a4,a5,1
    113a:	c218                	sw	a4,0(a2)
    113c:	a38c                	sb	a1,0(a5)
    113e:	8082                	ret

00001140 <__sfputs_r>:
    1140:	1101                	addi	sp,sp,-32
    1142:	cc22                	sw	s0,24(sp)
    1144:	ca26                	sw	s1,20(sp)
    1146:	c84a                	sw	s2,16(sp)
    1148:	c64e                	sw	s3,12(sp)
    114a:	c452                	sw	s4,8(sp)
    114c:	ce06                	sw	ra,28(sp)
    114e:	892a                	mv	s2,a0
    1150:	89ae                	mv	s3,a1
    1152:	8432                	mv	s0,a2
    1154:	00d604b3          	add	s1,a2,a3
    1158:	5a7d                	li	s4,-1
    115a:	00941463          	bne	s0,s1,1162 <__sfputs_r+0x22>
    115e:	4501                	li	a0,0
    1160:	a801                	j	1170 <__sfputs_r+0x30>
    1162:	200c                	lbu	a1,0(s0)
    1164:	864e                	mv	a2,s3
    1166:	854a                	mv	a0,s2
    1168:	3f45                	jal	1118 <__sfputc_r>
    116a:	0405                	addi	s0,s0,1
    116c:	ff4517e3          	bne	a0,s4,115a <__sfputs_r+0x1a>
    1170:	40f2                	lw	ra,28(sp)
    1172:	4462                	lw	s0,24(sp)
    1174:	44d2                	lw	s1,20(sp)
    1176:	4942                	lw	s2,16(sp)
    1178:	49b2                	lw	s3,12(sp)
    117a:	4a22                	lw	s4,8(sp)
    117c:	6105                	addi	sp,sp,32
    117e:	8082                	ret

00001180 <_vfiprintf_r>:
    1180:	7135                	addi	sp,sp,-160
    1182:	cd22                	sw	s0,152(sp)
    1184:	cb26                	sw	s1,148(sp)
    1186:	c94a                	sw	s2,144(sp)
    1188:	c74e                	sw	s3,140(sp)
    118a:	cf06                	sw	ra,156(sp)
    118c:	c552                	sw	s4,136(sp)
    118e:	c356                	sw	s5,132(sp)
    1190:	c15a                	sw	s6,128(sp)
    1192:	dede                	sw	s7,124(sp)
    1194:	dce2                	sw	s8,120(sp)
    1196:	dae6                	sw	s9,116(sp)
    1198:	89aa                	mv	s3,a0
    119a:	84ae                	mv	s1,a1
    119c:	8932                	mv	s2,a2
    119e:	8436                	mv	s0,a3
    11a0:	c501                	beqz	a0,11a8 <_vfiprintf_r+0x28>
    11a2:	4d1c                	lw	a5,24(a0)
    11a4:	e391                	bnez	a5,11a8 <_vfiprintf_r+0x28>
    11a6:	364d                	jal	d48 <__sinit>
    11a8:	00001797          	auipc	a5,0x1
    11ac:	88c78793          	addi	a5,a5,-1908 # 1a34 <__sf_fake_stdin>
    11b0:	0cf49763          	bne	s1,a5,127e <_vfiprintf_r+0xfe>
    11b4:	0049a483          	lw	s1,4(s3)
    11b8:	24de                	lhu	a5,12(s1)
    11ba:	8ba1                	andi	a5,a5,8
    11bc:	c3fd                	beqz	a5,12a2 <_vfiprintf_r+0x122>
    11be:	489c                	lw	a5,16(s1)
    11c0:	c3ed                	beqz	a5,12a2 <_vfiprintf_r+0x122>
    11c2:	02000793          	li	a5,32
    11c6:	02f104a3          	sb	a5,41(sp)
    11ca:	03000793          	li	a5,48
    11ce:	d202                	sw	zero,36(sp)
    11d0:	02f10523          	sb	a5,42(sp)
    11d4:	c622                	sw	s0,12(sp)
    11d6:	02500b93          	li	s7,37
    11da:	00001a97          	auipc	s5,0x1
    11de:	89aa8a93          	addi	s5,s5,-1894 # 1a74 <__sf_fake_stdout+0x20>
    11e2:	4c05                	li	s8,1
    11e4:	4b29                	li	s6,10
    11e6:	844a                	mv	s0,s2
    11e8:	201c                	lbu	a5,0(s0)
    11ea:	c399                	beqz	a5,11f0 <_vfiprintf_r+0x70>
    11ec:	0d779e63          	bne	a5,s7,12c8 <_vfiprintf_r+0x148>
    11f0:	41240cb3          	sub	s9,s0,s2
    11f4:	000c8d63          	beqz	s9,120e <_vfiprintf_r+0x8e>
    11f8:	86e6                	mv	a3,s9
    11fa:	864a                	mv	a2,s2
    11fc:	85a6                	mv	a1,s1
    11fe:	854e                	mv	a0,s3
    1200:	3781                	jal	1140 <__sfputs_r>
    1202:	57fd                	li	a5,-1
    1204:	1cf50f63          	beq	a0,a5,13e2 <_vfiprintf_r+0x262>
    1208:	5692                	lw	a3,36(sp)
    120a:	96e6                	add	a3,a3,s9
    120c:	d236                	sw	a3,36(sp)
    120e:	201c                	lbu	a5,0(s0)
    1210:	1c078963          	beqz	a5,13e2 <_vfiprintf_r+0x262>
    1214:	57fd                	li	a5,-1
    1216:	00140913          	addi	s2,s0,1
    121a:	c802                	sw	zero,16(sp)
    121c:	ce02                	sw	zero,28(sp)
    121e:	ca3e                	sw	a5,20(sp)
    1220:	cc02                	sw	zero,24(sp)
    1222:	040109a3          	sb	zero,83(sp)
    1226:	d482                	sw	zero,104(sp)
    1228:	00094583          	lbu	a1,0(s2)
    122c:	4615                	li	a2,5
    122e:	8556                	mv	a0,s5
    1230:	2725                	jal	1958 <memchr>
    1232:	00190413          	addi	s0,s2,1
    1236:	47c2                	lw	a5,16(sp)
    1238:	e951                	bnez	a0,12cc <_vfiprintf_r+0x14c>
    123a:	0107f713          	andi	a4,a5,16
    123e:	c709                	beqz	a4,1248 <_vfiprintf_r+0xc8>
    1240:	02000713          	li	a4,32
    1244:	04e109a3          	sb	a4,83(sp)
    1248:	0087f713          	andi	a4,a5,8
    124c:	c709                	beqz	a4,1256 <_vfiprintf_r+0xd6>
    124e:	02b00713          	li	a4,43
    1252:	04e109a3          	sb	a4,83(sp)
    1256:	00094683          	lbu	a3,0(s2)
    125a:	02a00713          	li	a4,42
    125e:	06e68f63          	beq	a3,a4,12dc <_vfiprintf_r+0x15c>
    1262:	47f2                	lw	a5,28(sp)
    1264:	844a                	mv	s0,s2
    1266:	4681                	li	a3,0
    1268:	4625                	li	a2,9
    126a:	2018                	lbu	a4,0(s0)
    126c:	00140593          	addi	a1,s0,1
    1270:	fd070713          	addi	a4,a4,-48 # ffffdfd0 <__freertos_irq_stack_top+0xdfff8fd0>
    1274:	0ae67763          	bgeu	a2,a4,1322 <_vfiprintf_r+0x1a2>
    1278:	cab5                	beqz	a3,12ec <_vfiprintf_r+0x16c>
    127a:	ce3e                	sw	a5,28(sp)
    127c:	a885                	j	12ec <_vfiprintf_r+0x16c>
    127e:	00000797          	auipc	a5,0x0
    1282:	7d678793          	addi	a5,a5,2006 # 1a54 <__sf_fake_stdout>
    1286:	00f49563          	bne	s1,a5,1290 <_vfiprintf_r+0x110>
    128a:	0089a483          	lw	s1,8(s3)
    128e:	b72d                	j	11b8 <_vfiprintf_r+0x38>
    1290:	00000797          	auipc	a5,0x0
    1294:	78478793          	addi	a5,a5,1924 # 1a14 <__sf_fake_stderr>
    1298:	f2f490e3          	bne	s1,a5,11b8 <_vfiprintf_r+0x38>
    129c:	00c9a483          	lw	s1,12(s3)
    12a0:	bf21                	j	11b8 <_vfiprintf_r+0x38>
    12a2:	85a6                	mv	a1,s1
    12a4:	854e                	mv	a0,s3
    12a6:	f5cff0ef          	jal	ra,a02 <__swsetup_r>
    12aa:	dd01                	beqz	a0,11c2 <_vfiprintf_r+0x42>
    12ac:	557d                	li	a0,-1
    12ae:	40fa                	lw	ra,156(sp)
    12b0:	446a                	lw	s0,152(sp)
    12b2:	44da                	lw	s1,148(sp)
    12b4:	494a                	lw	s2,144(sp)
    12b6:	49ba                	lw	s3,140(sp)
    12b8:	4a2a                	lw	s4,136(sp)
    12ba:	4a9a                	lw	s5,132(sp)
    12bc:	4b0a                	lw	s6,128(sp)
    12be:	5bf6                	lw	s7,124(sp)
    12c0:	5c66                	lw	s8,120(sp)
    12c2:	5cd6                	lw	s9,116(sp)
    12c4:	610d                	addi	sp,sp,160
    12c6:	8082                	ret
    12c8:	0405                	addi	s0,s0,1
    12ca:	bf39                	j	11e8 <_vfiprintf_r+0x68>
    12cc:	41550533          	sub	a0,a0,s5
    12d0:	00ac1533          	sll	a0,s8,a0
    12d4:	8fc9                	or	a5,a5,a0
    12d6:	c83e                	sw	a5,16(sp)
    12d8:	8922                	mv	s2,s0
    12da:	b7b9                	j	1228 <_vfiprintf_r+0xa8>
    12dc:	4732                	lw	a4,12(sp)
    12de:	00470693          	addi	a3,a4,4
    12e2:	4318                	lw	a4,0(a4)
    12e4:	c636                	sw	a3,12(sp)
    12e6:	02074763          	bltz	a4,1314 <_vfiprintf_r+0x194>
    12ea:	ce3a                	sw	a4,28(sp)
    12ec:	2018                	lbu	a4,0(s0)
    12ee:	02e00793          	li	a5,46
    12f2:	04f71d63          	bne	a4,a5,134c <_vfiprintf_r+0x1cc>
    12f6:	3018                	lbu	a4,1(s0)
    12f8:	02a00793          	li	a5,42
    12fc:	02f71b63          	bne	a4,a5,1332 <_vfiprintf_r+0x1b2>
    1300:	47b2                	lw	a5,12(sp)
    1302:	0409                	addi	s0,s0,2
    1304:	00478713          	addi	a4,a5,4
    1308:	439c                	lw	a5,0(a5)
    130a:	c63a                	sw	a4,12(sp)
    130c:	0207c163          	bltz	a5,132e <_vfiprintf_r+0x1ae>
    1310:	ca3e                	sw	a5,20(sp)
    1312:	a82d                	j	134c <_vfiprintf_r+0x1cc>
    1314:	40e00733          	neg	a4,a4
    1318:	0027e793          	ori	a5,a5,2
    131c:	ce3a                	sw	a4,28(sp)
    131e:	c83e                	sw	a5,16(sp)
    1320:	b7f1                	j	12ec <_vfiprintf_r+0x16c>
    1322:	036787b3          	mul	a5,a5,s6
    1326:	4685                	li	a3,1
    1328:	842e                	mv	s0,a1
    132a:	97ba                	add	a5,a5,a4
    132c:	bf3d                	j	126a <_vfiprintf_r+0xea>
    132e:	57fd                	li	a5,-1
    1330:	b7c5                	j	1310 <_vfiprintf_r+0x190>
    1332:	0405                	addi	s0,s0,1
    1334:	ca02                	sw	zero,20(sp)
    1336:	4681                	li	a3,0
    1338:	4781                	li	a5,0
    133a:	4625                	li	a2,9
    133c:	2018                	lbu	a4,0(s0)
    133e:	00140593          	addi	a1,s0,1
    1342:	fd070713          	addi	a4,a4,-48
    1346:	06e67463          	bgeu	a2,a4,13ae <_vfiprintf_r+0x22e>
    134a:	f2f9                	bnez	a3,1310 <_vfiprintf_r+0x190>
    134c:	200c                	lbu	a1,0(s0)
    134e:	460d                	li	a2,3
    1350:	00000517          	auipc	a0,0x0
    1354:	72c50513          	addi	a0,a0,1836 # 1a7c <__sf_fake_stdout+0x28>
    1358:	2501                	jal	1958 <memchr>
    135a:	cd11                	beqz	a0,1376 <_vfiprintf_r+0x1f6>
    135c:	00000797          	auipc	a5,0x0
    1360:	72078793          	addi	a5,a5,1824 # 1a7c <__sf_fake_stdout+0x28>
    1364:	8d1d                	sub	a0,a0,a5
    1366:	04000793          	li	a5,64
    136a:	00a797b3          	sll	a5,a5,a0
    136e:	4542                	lw	a0,16(sp)
    1370:	0405                	addi	s0,s0,1
    1372:	8d5d                	or	a0,a0,a5
    1374:	c82a                	sw	a0,16(sp)
    1376:	200c                	lbu	a1,0(s0)
    1378:	4619                	li	a2,6
    137a:	00000517          	auipc	a0,0x0
    137e:	70650513          	addi	a0,a0,1798 # 1a80 <__sf_fake_stdout+0x2c>
    1382:	00140913          	addi	s2,s0,1
    1386:	02b10423          	sb	a1,40(sp)
    138a:	23f9                	jal	1958 <memchr>
    138c:	c135                	beqz	a0,13f0 <_vfiprintf_r+0x270>
    138e:	fffff797          	auipc	a5,0xfffff
    1392:	c7278793          	addi	a5,a5,-910 # 0 <_sinit>
    1396:	e795                	bnez	a5,13c2 <_vfiprintf_r+0x242>
    1398:	4742                	lw	a4,16(sp)
    139a:	47b2                	lw	a5,12(sp)
    139c:	10077713          	andi	a4,a4,256
    13a0:	cf09                	beqz	a4,13ba <_vfiprintf_r+0x23a>
    13a2:	0791                	addi	a5,a5,4
    13a4:	c63e                	sw	a5,12(sp)
    13a6:	5792                	lw	a5,36(sp)
    13a8:	97d2                	add	a5,a5,s4
    13aa:	d23e                	sw	a5,36(sp)
    13ac:	bd2d                	j	11e6 <_vfiprintf_r+0x66>
    13ae:	036787b3          	mul	a5,a5,s6
    13b2:	4685                	li	a3,1
    13b4:	842e                	mv	s0,a1
    13b6:	97ba                	add	a5,a5,a4
    13b8:	b751                	j	133c <_vfiprintf_r+0x1bc>
    13ba:	079d                	addi	a5,a5,7
    13bc:	9be1                	andi	a5,a5,-8
    13be:	07a1                	addi	a5,a5,8
    13c0:	b7d5                	j	13a4 <_vfiprintf_r+0x224>
    13c2:	0078                	addi	a4,sp,12
    13c4:	00000697          	auipc	a3,0x0
    13c8:	d7c68693          	addi	a3,a3,-644 # 1140 <__sfputs_r>
    13cc:	8626                	mv	a2,s1
    13ce:	080c                	addi	a1,sp,16
    13d0:	854e                	mv	a0,s3
    13d2:	00000097          	auipc	ra,0x0
    13d6:	000000e7          	jalr	zero # 0 <_sinit>
    13da:	57fd                	li	a5,-1
    13dc:	8a2a                	mv	s4,a0
    13de:	fcf514e3          	bne	a0,a5,13a6 <_vfiprintf_r+0x226>
    13e2:	24de                	lhu	a5,12(s1)
    13e4:	0407f793          	andi	a5,a5,64
    13e8:	ec0792e3          	bnez	a5,12ac <_vfiprintf_r+0x12c>
    13ec:	5512                	lw	a0,36(sp)
    13ee:	b5c1                	j	12ae <_vfiprintf_r+0x12e>
    13f0:	0078                	addi	a4,sp,12
    13f2:	00000697          	auipc	a3,0x0
    13f6:	d4e68693          	addi	a3,a3,-690 # 1140 <__sfputs_r>
    13fa:	8626                	mv	a2,s1
    13fc:	080c                	addi	a1,sp,16
    13fe:	854e                	mv	a0,s3
    1400:	2a01                	jal	1510 <_printf_i>
    1402:	bfe1                	j	13da <_vfiprintf_r+0x25a>

00001404 <_printf_common>:
    1404:	7179                	addi	sp,sp,-48
    1406:	ca56                	sw	s5,20(sp)
    1408:	499c                	lw	a5,16(a1)
    140a:	8aba                	mv	s5,a4
    140c:	4598                	lw	a4,8(a1)
    140e:	d422                	sw	s0,40(sp)
    1410:	d226                	sw	s1,36(sp)
    1412:	ce4e                	sw	s3,28(sp)
    1414:	cc52                	sw	s4,24(sp)
    1416:	d606                	sw	ra,44(sp)
    1418:	d04a                	sw	s2,32(sp)
    141a:	c85a                	sw	s6,16(sp)
    141c:	c65e                	sw	s7,12(sp)
    141e:	89aa                	mv	s3,a0
    1420:	842e                	mv	s0,a1
    1422:	84b2                	mv	s1,a2
    1424:	8a36                	mv	s4,a3
    1426:	00e7d363          	bge	a5,a4,142c <_printf_common+0x28>
    142a:	87ba                	mv	a5,a4
    142c:	c09c                	sw	a5,0(s1)
    142e:	04344703          	lbu	a4,67(s0)
    1432:	c319                	beqz	a4,1438 <_printf_common+0x34>
    1434:	0785                	addi	a5,a5,1
    1436:	c09c                	sw	a5,0(s1)
    1438:	401c                	lw	a5,0(s0)
    143a:	0207f793          	andi	a5,a5,32
    143e:	c781                	beqz	a5,1446 <_printf_common+0x42>
    1440:	409c                	lw	a5,0(s1)
    1442:	0789                	addi	a5,a5,2
    1444:	c09c                	sw	a5,0(s1)
    1446:	00042903          	lw	s2,0(s0)
    144a:	00697913          	andi	s2,s2,6
    144e:	00091a63          	bnez	s2,1462 <_printf_common+0x5e>
    1452:	01940b13          	addi	s6,s0,25
    1456:	5bfd                	li	s7,-1
    1458:	445c                	lw	a5,12(s0)
    145a:	4098                	lw	a4,0(s1)
    145c:	8f99                	sub	a5,a5,a4
    145e:	04f94c63          	blt	s2,a5,14b6 <_printf_common+0xb2>
    1462:	401c                	lw	a5,0(s0)
    1464:	04344683          	lbu	a3,67(s0)
    1468:	0207f793          	andi	a5,a5,32
    146c:	00d036b3          	snez	a3,a3
    1470:	eba5                	bnez	a5,14e0 <_printf_common+0xdc>
    1472:	04340613          	addi	a2,s0,67
    1476:	85d2                	mv	a1,s4
    1478:	854e                	mv	a0,s3
    147a:	9a82                	jalr	s5
    147c:	57fd                	li	a5,-1
    147e:	04f50363          	beq	a0,a5,14c4 <_printf_common+0xc0>
    1482:	401c                	lw	a5,0(s0)
    1484:	4611                	li	a2,4
    1486:	4098                	lw	a4,0(s1)
    1488:	8b99                	andi	a5,a5,6
    148a:	4454                	lw	a3,12(s0)
    148c:	4481                	li	s1,0
    148e:	00c79763          	bne	a5,a2,149c <_printf_common+0x98>
    1492:	40e684b3          	sub	s1,a3,a4
    1496:	0004d363          	bgez	s1,149c <_printf_common+0x98>
    149a:	4481                	li	s1,0
    149c:	441c                	lw	a5,8(s0)
    149e:	4818                	lw	a4,16(s0)
    14a0:	00f75463          	bge	a4,a5,14a8 <_printf_common+0xa4>
    14a4:	8f99                	sub	a5,a5,a4
    14a6:	94be                	add	s1,s1,a5
    14a8:	4901                	li	s2,0
    14aa:	0469                	addi	s0,s0,26
    14ac:	5b7d                	li	s6,-1
    14ae:	05249863          	bne	s1,s2,14fe <_printf_common+0xfa>
    14b2:	4501                	li	a0,0
    14b4:	a809                	j	14c6 <_printf_common+0xc2>
    14b6:	4685                	li	a3,1
    14b8:	865a                	mv	a2,s6
    14ba:	85d2                	mv	a1,s4
    14bc:	854e                	mv	a0,s3
    14be:	9a82                	jalr	s5
    14c0:	01751e63          	bne	a0,s7,14dc <_printf_common+0xd8>
    14c4:	557d                	li	a0,-1
    14c6:	50b2                	lw	ra,44(sp)
    14c8:	5422                	lw	s0,40(sp)
    14ca:	5492                	lw	s1,36(sp)
    14cc:	5902                	lw	s2,32(sp)
    14ce:	49f2                	lw	s3,28(sp)
    14d0:	4a62                	lw	s4,24(sp)
    14d2:	4ad2                	lw	s5,20(sp)
    14d4:	4b42                	lw	s6,16(sp)
    14d6:	4bb2                	lw	s7,12(sp)
    14d8:	6145                	addi	sp,sp,48
    14da:	8082                	ret
    14dc:	0905                	addi	s2,s2,1
    14de:	bfad                	j	1458 <_printf_common+0x54>
    14e0:	00d40733          	add	a4,s0,a3
    14e4:	03000613          	li	a2,48
    14e8:	04c701a3          	sb	a2,67(a4)
    14ec:	04544703          	lbu	a4,69(s0)
    14f0:	00168793          	addi	a5,a3,1
    14f4:	97a2                	add	a5,a5,s0
    14f6:	0689                	addi	a3,a3,2
    14f8:	04e781a3          	sb	a4,67(a5)
    14fc:	bf9d                	j	1472 <_printf_common+0x6e>
    14fe:	4685                	li	a3,1
    1500:	8622                	mv	a2,s0
    1502:	85d2                	mv	a1,s4
    1504:	854e                	mv	a0,s3
    1506:	9a82                	jalr	s5
    1508:	fb650ee3          	beq	a0,s6,14c4 <_printf_common+0xc0>
    150c:	0905                	addi	s2,s2,1
    150e:	b745                	j	14ae <_printf_common+0xaa>

00001510 <_printf_i>:
    1510:	7179                	addi	sp,sp,-48
    1512:	d422                	sw	s0,40(sp)
    1514:	d226                	sw	s1,36(sp)
    1516:	d04a                	sw	s2,32(sp)
    1518:	ce4e                	sw	s3,28(sp)
    151a:	d606                	sw	ra,44(sp)
    151c:	cc52                	sw	s4,24(sp)
    151e:	ca56                	sw	s5,20(sp)
    1520:	c85a                	sw	s6,16(sp)
    1522:	89b6                	mv	s3,a3
    1524:	2d94                	lbu	a3,24(a1)
    1526:	06900793          	li	a5,105
    152a:	8932                	mv	s2,a2
    152c:	84aa                	mv	s1,a0
    152e:	842e                	mv	s0,a1
    1530:	04358613          	addi	a2,a1,67
    1534:	02f68d63          	beq	a3,a5,156e <_printf_i+0x5e>
    1538:	06d7e263          	bltu	a5,a3,159c <_printf_i+0x8c>
    153c:	05800793          	li	a5,88
    1540:	18f68563          	beq	a3,a5,16ca <_printf_i+0x1ba>
    1544:	00d7ed63          	bltu	a5,a3,155e <_printf_i+0x4e>
    1548:	20068d63          	beqz	a3,1762 <_printf_i+0x252>
    154c:	04300793          	li	a5,67
    1550:	0af68e63          	beq	a3,a5,160c <_printf_i+0xfc>
    1554:	04240a93          	addi	s5,s0,66
    1558:	04d40123          	sb	a3,66(s0)
    155c:	a0c9                	j	161e <_printf_i+0x10e>
    155e:	06300793          	li	a5,99
    1562:	0af68563          	beq	a3,a5,160c <_printf_i+0xfc>
    1566:	06400793          	li	a5,100
    156a:	fef695e3          	bne	a3,a5,1554 <_printf_i+0x44>
    156e:	401c                	lw	a5,0(s0)
    1570:	4308                	lw	a0,0(a4)
    1572:	0807f693          	andi	a3,a5,128
    1576:	00450593          	addi	a1,a0,4
    157a:	c6c5                	beqz	a3,1622 <_printf_i+0x112>
    157c:	411c                	lw	a5,0(a0)
    157e:	c30c                	sw	a1,0(a4)
    1580:	0007d863          	bgez	a5,1590 <_printf_i+0x80>
    1584:	02d00713          	li	a4,45
    1588:	40f007b3          	neg	a5,a5
    158c:	04e401a3          	sb	a4,67(s0)
    1590:	00000697          	auipc	a3,0x0
    1594:	4f868693          	addi	a3,a3,1272 # 1a88 <__sf_fake_stdout+0x34>
    1598:	4729                	li	a4,10
    159a:	a865                	j	1652 <_printf_i+0x142>
    159c:	07000793          	li	a5,112
    15a0:	16f68163          	beq	a3,a5,1702 <_printf_i+0x1f2>
    15a4:	02d7e563          	bltu	a5,a3,15ce <_printf_i+0xbe>
    15a8:	06e00793          	li	a5,110
    15ac:	18f68863          	beq	a3,a5,173c <_printf_i+0x22c>
    15b0:	06f00793          	li	a5,111
    15b4:	faf690e3          	bne	a3,a5,1554 <_printf_i+0x44>
    15b8:	400c                	lw	a1,0(s0)
    15ba:	431c                	lw	a5,0(a4)
    15bc:	0805f813          	andi	a6,a1,128
    15c0:	00478513          	addi	a0,a5,4
    15c4:	06080763          	beqz	a6,1632 <_printf_i+0x122>
    15c8:	c308                	sw	a0,0(a4)
    15ca:	439c                	lw	a5,0(a5)
    15cc:	a885                	j	163c <_printf_i+0x12c>
    15ce:	07500793          	li	a5,117
    15d2:	fef683e3          	beq	a3,a5,15b8 <_printf_i+0xa8>
    15d6:	07800793          	li	a5,120
    15da:	12f68863          	beq	a3,a5,170a <_printf_i+0x1fa>
    15de:	07300793          	li	a5,115
    15e2:	f6f699e3          	bne	a3,a5,1554 <_printf_i+0x44>
    15e6:	431c                	lw	a5,0(a4)
    15e8:	41d0                	lw	a2,4(a1)
    15ea:	4581                	li	a1,0
    15ec:	00478693          	addi	a3,a5,4
    15f0:	c314                	sw	a3,0(a4)
    15f2:	0007aa83          	lw	s5,0(a5)
    15f6:	8556                	mv	a0,s5
    15f8:	2685                	jal	1958 <memchr>
    15fa:	c501                	beqz	a0,1602 <_printf_i+0xf2>
    15fc:	41550533          	sub	a0,a0,s5
    1600:	c048                	sw	a0,4(s0)
    1602:	405c                	lw	a5,4(s0)
    1604:	c81c                	sw	a5,16(s0)
    1606:	040401a3          	sb	zero,67(s0)
    160a:	a861                	j	16a2 <_printf_i+0x192>
    160c:	431c                	lw	a5,0(a4)
    160e:	04240a93          	addi	s5,s0,66
    1612:	00478693          	addi	a3,a5,4
    1616:	439c                	lw	a5,0(a5)
    1618:	c314                	sw	a3,0(a4)
    161a:	04f40123          	sb	a5,66(s0)
    161e:	4785                	li	a5,1
    1620:	b7d5                	j	1604 <_printf_i+0xf4>
    1622:	0407f693          	andi	a3,a5,64
    1626:	411c                	lw	a5,0(a0)
    1628:	c30c                	sw	a1,0(a4)
    162a:	dab9                	beqz	a3,1580 <_printf_i+0x70>
    162c:	07c2                	slli	a5,a5,0x10
    162e:	87c1                	srai	a5,a5,0x10
    1630:	bf81                	j	1580 <_printf_i+0x70>
    1632:	0405f593          	andi	a1,a1,64
    1636:	c308                	sw	a0,0(a4)
    1638:	d9c9                	beqz	a1,15ca <_printf_i+0xba>
    163a:	239e                	lhu	a5,0(a5)
    163c:	06f00713          	li	a4,111
    1640:	0ee68663          	beq	a3,a4,172c <_printf_i+0x21c>
    1644:	00000697          	auipc	a3,0x0
    1648:	44468693          	addi	a3,a3,1092 # 1a88 <__sf_fake_stdout+0x34>
    164c:	4729                	li	a4,10
    164e:	040401a3          	sb	zero,67(s0)
    1652:	404c                	lw	a1,4(s0)
    1654:	c40c                	sw	a1,8(s0)
    1656:	0005c563          	bltz	a1,1660 <_printf_i+0x150>
    165a:	4008                	lw	a0,0(s0)
    165c:	996d                	andi	a0,a0,-5
    165e:	c008                	sw	a0,0(s0)
    1660:	e399                	bnez	a5,1666 <_printf_i+0x156>
    1662:	8ab2                	mv	s5,a2
    1664:	cd89                	beqz	a1,167e <_printf_i+0x16e>
    1666:	8ab2                	mv	s5,a2
    1668:	02e7f5b3          	remu	a1,a5,a4
    166c:	1afd                	addi	s5,s5,-1
    166e:	95b6                	add	a1,a1,a3
    1670:	218c                	lbu	a1,0(a1)
    1672:	00ba8023          	sb	a1,0(s5)
    1676:	02e7d5b3          	divu	a1,a5,a4
    167a:	0ae7ff63          	bgeu	a5,a4,1738 <_printf_i+0x228>
    167e:	47a1                	li	a5,8
    1680:	00f71e63          	bne	a4,a5,169c <_printf_i+0x18c>
    1684:	401c                	lw	a5,0(s0)
    1686:	8b85                	andi	a5,a5,1
    1688:	cb91                	beqz	a5,169c <_printf_i+0x18c>
    168a:	4058                	lw	a4,4(s0)
    168c:	481c                	lw	a5,16(s0)
    168e:	00e7c763          	blt	a5,a4,169c <_printf_i+0x18c>
    1692:	03000793          	li	a5,48
    1696:	fefa8fa3          	sb	a5,-1(s5)
    169a:	1afd                	addi	s5,s5,-1
    169c:	41560633          	sub	a2,a2,s5
    16a0:	c810                	sw	a2,16(s0)
    16a2:	874e                	mv	a4,s3
    16a4:	86ca                	mv	a3,s2
    16a6:	0070                	addi	a2,sp,12
    16a8:	85a2                	mv	a1,s0
    16aa:	8526                	mv	a0,s1
    16ac:	3ba1                	jal	1404 <_printf_common>
    16ae:	5a7d                	li	s4,-1
    16b0:	0b451d63          	bne	a0,s4,176a <_printf_i+0x25a>
    16b4:	557d                	li	a0,-1
    16b6:	50b2                	lw	ra,44(sp)
    16b8:	5422                	lw	s0,40(sp)
    16ba:	5492                	lw	s1,36(sp)
    16bc:	5902                	lw	s2,32(sp)
    16be:	49f2                	lw	s3,28(sp)
    16c0:	4a62                	lw	s4,24(sp)
    16c2:	4ad2                	lw	s5,20(sp)
    16c4:	4b42                	lw	s6,16(sp)
    16c6:	6145                	addi	sp,sp,48
    16c8:	8082                	ret
    16ca:	04d582a3          	sb	a3,69(a1)
    16ce:	00000697          	auipc	a3,0x0
    16d2:	3ba68693          	addi	a3,a3,954 # 1a88 <__sf_fake_stdout+0x34>
    16d6:	400c                	lw	a1,0(s0)
    16d8:	4308                	lw	a0,0(a4)
    16da:	0805f813          	andi	a6,a1,128
    16de:	411c                	lw	a5,0(a0)
    16e0:	0511                	addi	a0,a0,4
    16e2:	02080d63          	beqz	a6,171c <_printf_i+0x20c>
    16e6:	c308                	sw	a0,0(a4)
    16e8:	0015f713          	andi	a4,a1,1
    16ec:	c701                	beqz	a4,16f4 <_printf_i+0x1e4>
    16ee:	0205e593          	ori	a1,a1,32
    16f2:	c00c                	sw	a1,0(s0)
    16f4:	4741                	li	a4,16
    16f6:	ffa1                	bnez	a5,164e <_printf_i+0x13e>
    16f8:	400c                	lw	a1,0(s0)
    16fa:	fdf5f593          	andi	a1,a1,-33
    16fe:	c00c                	sw	a1,0(s0)
    1700:	b7b9                	j	164e <_printf_i+0x13e>
    1702:	419c                	lw	a5,0(a1)
    1704:	0207e793          	ori	a5,a5,32
    1708:	c19c                	sw	a5,0(a1)
    170a:	07800793          	li	a5,120
    170e:	04f402a3          	sb	a5,69(s0)
    1712:	00000697          	auipc	a3,0x0
    1716:	38a68693          	addi	a3,a3,906 # 1a9c <__sf_fake_stdout+0x48>
    171a:	bf75                	j	16d6 <_printf_i+0x1c6>
    171c:	0405f813          	andi	a6,a1,64
    1720:	c308                	sw	a0,0(a4)
    1722:	fc0803e3          	beqz	a6,16e8 <_printf_i+0x1d8>
    1726:	07c2                	slli	a5,a5,0x10
    1728:	83c1                	srli	a5,a5,0x10
    172a:	bf7d                	j	16e8 <_printf_i+0x1d8>
    172c:	00000697          	auipc	a3,0x0
    1730:	35c68693          	addi	a3,a3,860 # 1a88 <__sf_fake_stdout+0x34>
    1734:	4721                	li	a4,8
    1736:	bf21                	j	164e <_printf_i+0x13e>
    1738:	87ae                	mv	a5,a1
    173a:	b73d                	j	1668 <_printf_i+0x158>
    173c:	4194                	lw	a3,0(a1)
    173e:	431c                	lw	a5,0(a4)
    1740:	49cc                	lw	a1,20(a1)
    1742:	0806f813          	andi	a6,a3,128
    1746:	00478513          	addi	a0,a5,4
    174a:	00080663          	beqz	a6,1756 <_printf_i+0x246>
    174e:	c308                	sw	a0,0(a4)
    1750:	439c                	lw	a5,0(a5)
    1752:	c38c                	sw	a1,0(a5)
    1754:	a039                	j	1762 <_printf_i+0x252>
    1756:	c308                	sw	a0,0(a4)
    1758:	0406f693          	andi	a3,a3,64
    175c:	439c                	lw	a5,0(a5)
    175e:	daf5                	beqz	a3,1752 <_printf_i+0x242>
    1760:	a38e                	sh	a1,0(a5)
    1762:	00042823          	sw	zero,16(s0)
    1766:	8ab2                	mv	s5,a2
    1768:	bf2d                	j	16a2 <_printf_i+0x192>
    176a:	4814                	lw	a3,16(s0)
    176c:	8656                	mv	a2,s5
    176e:	85ca                	mv	a1,s2
    1770:	8526                	mv	a0,s1
    1772:	9982                	jalr	s3
    1774:	f54500e3          	beq	a0,s4,16b4 <_printf_i+0x1a4>
    1778:	401c                	lw	a5,0(s0)
    177a:	8b89                	andi	a5,a5,2
    177c:	e78d                	bnez	a5,17a6 <_printf_i+0x296>
    177e:	47b2                	lw	a5,12(sp)
    1780:	4448                	lw	a0,12(s0)
    1782:	f2f55ae3          	bge	a0,a5,16b6 <_printf_i+0x1a6>
    1786:	853e                	mv	a0,a5
    1788:	b73d                	j	16b6 <_printf_i+0x1a6>
    178a:	4685                	li	a3,1
    178c:	8656                	mv	a2,s5
    178e:	85ca                	mv	a1,s2
    1790:	8526                	mv	a0,s1
    1792:	9982                	jalr	s3
    1794:	f36500e3          	beq	a0,s6,16b4 <_printf_i+0x1a4>
    1798:	0a05                	addi	s4,s4,1
    179a:	445c                	lw	a5,12(s0)
    179c:	4732                	lw	a4,12(sp)
    179e:	8f99                	sub	a5,a5,a4
    17a0:	fefa45e3          	blt	s4,a5,178a <_printf_i+0x27a>
    17a4:	bfe9                	j	177e <_printf_i+0x26e>
    17a6:	4a01                	li	s4,0
    17a8:	01940a93          	addi	s5,s0,25
    17ac:	5b7d                	li	s6,-1
    17ae:	b7f5                	j	179a <_printf_i+0x28a>

000017b0 <_sbrk_r>:
    17b0:	1141                	addi	sp,sp,-16
    17b2:	c422                	sw	s0,8(sp)
    17b4:	842a                	mv	s0,a0
    17b6:	852e                	mv	a0,a1
    17b8:	8201a423          	sw	zero,-2008(gp) # 200000a8 <errno>
    17bc:	c606                	sw	ra,12(sp)
    17be:	d03fe0ef          	jal	ra,4c0 <_sbrk>
    17c2:	57fd                	li	a5,-1
    17c4:	00f51763          	bne	a0,a5,17d2 <_sbrk_r+0x22>
    17c8:	82818793          	addi	a5,gp,-2008 # 200000a8 <errno>
    17cc:	439c                	lw	a5,0(a5)
    17ce:	c391                	beqz	a5,17d2 <_sbrk_r+0x22>
    17d0:	c01c                	sw	a5,0(s0)
    17d2:	40b2                	lw	ra,12(sp)
    17d4:	4422                	lw	s0,8(sp)
    17d6:	0141                	addi	sp,sp,16
    17d8:	8082                	ret

000017da <__sread>:
    17da:	1141                	addi	sp,sp,-16
    17dc:	c422                	sw	s0,8(sp)
    17de:	842e                	mv	s0,a1
    17e0:	00e59583          	lh	a1,14(a1)
    17e4:	c606                	sw	ra,12(sp)
    17e6:	2279                	jal	1974 <_read_r>
    17e8:	00054963          	bltz	a0,17fa <__sread+0x20>
    17ec:	487c                	lw	a5,84(s0)
    17ee:	97aa                	add	a5,a5,a0
    17f0:	c87c                	sw	a5,84(s0)
    17f2:	40b2                	lw	ra,12(sp)
    17f4:	4422                	lw	s0,8(sp)
    17f6:	0141                	addi	sp,sp,16
    17f8:	8082                	ret
    17fa:	245e                	lhu	a5,12(s0)
    17fc:	777d                	lui	a4,0xfffff
    17fe:	177d                	addi	a4,a4,-1
    1800:	8ff9                	and	a5,a5,a4
    1802:	a45e                	sh	a5,12(s0)
    1804:	b7fd                	j	17f2 <__sread+0x18>

00001806 <__swrite>:
    1806:	25de                	lhu	a5,12(a1)
    1808:	1101                	addi	sp,sp,-32
    180a:	cc22                	sw	s0,24(sp)
    180c:	ca26                	sw	s1,20(sp)
    180e:	c84a                	sw	s2,16(sp)
    1810:	c64e                	sw	s3,12(sp)
    1812:	ce06                	sw	ra,28(sp)
    1814:	1007f793          	andi	a5,a5,256
    1818:	84aa                	mv	s1,a0
    181a:	842e                	mv	s0,a1
    181c:	8932                	mv	s2,a2
    181e:	89b6                	mv	s3,a3
    1820:	c791                	beqz	a5,182c <__swrite+0x26>
    1822:	00e59583          	lh	a1,14(a1)
    1826:	4689                	li	a3,2
    1828:	4601                	li	a2,0
    182a:	2209                	jal	192c <_lseek_r>
    182c:	245e                	lhu	a5,12(s0)
    182e:	777d                	lui	a4,0xfffff
    1830:	177d                	addi	a4,a4,-1
    1832:	8ff9                	and	a5,a5,a4
    1834:	a45e                	sh	a5,12(s0)
    1836:	00e41583          	lh	a1,14(s0)
    183a:	4462                	lw	s0,24(sp)
    183c:	40f2                	lw	ra,28(sp)
    183e:	86ce                	mv	a3,s3
    1840:	864a                	mv	a2,s2
    1842:	49b2                	lw	s3,12(sp)
    1844:	4942                	lw	s2,16(sp)
    1846:	8526                	mv	a0,s1
    1848:	44d2                	lw	s1,20(sp)
    184a:	6105                	addi	sp,sp,32
    184c:	a825                	j	1884 <_write_r>

0000184e <__sseek>:
    184e:	1141                	addi	sp,sp,-16
    1850:	c422                	sw	s0,8(sp)
    1852:	842e                	mv	s0,a1
    1854:	00e59583          	lh	a1,14(a1)
    1858:	c606                	sw	ra,12(sp)
    185a:	28c9                	jal	192c <_lseek_r>
    185c:	57fd                	li	a5,-1
    185e:	245a                	lhu	a4,12(s0)
    1860:	00f51a63          	bne	a0,a5,1874 <__sseek+0x26>
    1864:	77fd                	lui	a5,0xfffff
    1866:	17fd                	addi	a5,a5,-1
    1868:	8ff9                	and	a5,a5,a4
    186a:	a45e                	sh	a5,12(s0)
    186c:	40b2                	lw	ra,12(sp)
    186e:	4422                	lw	s0,8(sp)
    1870:	0141                	addi	sp,sp,16
    1872:	8082                	ret
    1874:	6785                	lui	a5,0x1
    1876:	8fd9                	or	a5,a5,a4
    1878:	a45e                	sh	a5,12(s0)
    187a:	c868                	sw	a0,84(s0)
    187c:	bfc5                	j	186c <__sseek+0x1e>

0000187e <__sclose>:
    187e:	00e59583          	lh	a1,14(a1)
    1882:	a805                	j	18b2 <_close_r>

00001884 <_write_r>:
    1884:	1141                	addi	sp,sp,-16
    1886:	c422                	sw	s0,8(sp)
    1888:	842a                	mv	s0,a0
    188a:	852e                	mv	a0,a1
    188c:	85b2                	mv	a1,a2
    188e:	8636                	mv	a2,a3
    1890:	8201a423          	sw	zero,-2008(gp) # 200000a8 <errno>
    1894:	c606                	sw	ra,12(sp)
    1896:	bf3fe0ef          	jal	ra,488 <_write>
    189a:	57fd                	li	a5,-1
    189c:	00f51763          	bne	a0,a5,18aa <_write_r+0x26>
    18a0:	82818793          	addi	a5,gp,-2008 # 200000a8 <errno>
    18a4:	439c                	lw	a5,0(a5)
    18a6:	c391                	beqz	a5,18aa <_write_r+0x26>
    18a8:	c01c                	sw	a5,0(s0)
    18aa:	40b2                	lw	ra,12(sp)
    18ac:	4422                	lw	s0,8(sp)
    18ae:	0141                	addi	sp,sp,16
    18b0:	8082                	ret

000018b2 <_close_r>:
    18b2:	1141                	addi	sp,sp,-16
    18b4:	c422                	sw	s0,8(sp)
    18b6:	842a                	mv	s0,a0
    18b8:	852e                	mv	a0,a1
    18ba:	8201a423          	sw	zero,-2008(gp) # 200000a8 <errno>
    18be:	c606                	sw	ra,12(sp)
    18c0:	20c5                	jal	19a0 <_close>
    18c2:	57fd                	li	a5,-1
    18c4:	00f51763          	bne	a0,a5,18d2 <_close_r+0x20>
    18c8:	82818793          	addi	a5,gp,-2008 # 200000a8 <errno>
    18cc:	439c                	lw	a5,0(a5)
    18ce:	c391                	beqz	a5,18d2 <_close_r+0x20>
    18d0:	c01c                	sw	a5,0(s0)
    18d2:	40b2                	lw	ra,12(sp)
    18d4:	4422                	lw	s0,8(sp)
    18d6:	0141                	addi	sp,sp,16
    18d8:	8082                	ret

000018da <_fstat_r>:
    18da:	1141                	addi	sp,sp,-16
    18dc:	c422                	sw	s0,8(sp)
    18de:	842a                	mv	s0,a0
    18e0:	852e                	mv	a0,a1
    18e2:	85b2                	mv	a1,a2
    18e4:	8201a423          	sw	zero,-2008(gp) # 200000a8 <errno>
    18e8:	c606                	sw	ra,12(sp)
    18ea:	20c9                	jal	19ac <_fstat>
    18ec:	57fd                	li	a5,-1
    18ee:	00f51763          	bne	a0,a5,18fc <_fstat_r+0x22>
    18f2:	82818793          	addi	a5,gp,-2008 # 200000a8 <errno>
    18f6:	439c                	lw	a5,0(a5)
    18f8:	c391                	beqz	a5,18fc <_fstat_r+0x22>
    18fa:	c01c                	sw	a5,0(s0)
    18fc:	40b2                	lw	ra,12(sp)
    18fe:	4422                	lw	s0,8(sp)
    1900:	0141                	addi	sp,sp,16
    1902:	8082                	ret

00001904 <_isatty_r>:
    1904:	1141                	addi	sp,sp,-16
    1906:	c422                	sw	s0,8(sp)
    1908:	842a                	mv	s0,a0
    190a:	852e                	mv	a0,a1
    190c:	8201a423          	sw	zero,-2008(gp) # 200000a8 <errno>
    1910:	c606                	sw	ra,12(sp)
    1912:	205d                	jal	19b8 <_isatty>
    1914:	57fd                	li	a5,-1
    1916:	00f51763          	bne	a0,a5,1924 <_isatty_r+0x20>
    191a:	82818793          	addi	a5,gp,-2008 # 200000a8 <errno>
    191e:	439c                	lw	a5,0(a5)
    1920:	c391                	beqz	a5,1924 <_isatty_r+0x20>
    1922:	c01c                	sw	a5,0(s0)
    1924:	40b2                	lw	ra,12(sp)
    1926:	4422                	lw	s0,8(sp)
    1928:	0141                	addi	sp,sp,16
    192a:	8082                	ret

0000192c <_lseek_r>:
    192c:	1141                	addi	sp,sp,-16
    192e:	c422                	sw	s0,8(sp)
    1930:	842a                	mv	s0,a0
    1932:	852e                	mv	a0,a1
    1934:	85b2                	mv	a1,a2
    1936:	8636                	mv	a2,a3
    1938:	8201a423          	sw	zero,-2008(gp) # 200000a8 <errno>
    193c:	c606                	sw	ra,12(sp)
    193e:	2059                	jal	19c4 <_lseek>
    1940:	57fd                	li	a5,-1
    1942:	00f51763          	bne	a0,a5,1950 <_lseek_r+0x24>
    1946:	82818793          	addi	a5,gp,-2008 # 200000a8 <errno>
    194a:	439c                	lw	a5,0(a5)
    194c:	c391                	beqz	a5,1950 <_lseek_r+0x24>
    194e:	c01c                	sw	a5,0(s0)
    1950:	40b2                	lw	ra,12(sp)
    1952:	4422                	lw	s0,8(sp)
    1954:	0141                	addi	sp,sp,16
    1956:	8082                	ret

00001958 <memchr>:
    1958:	0ff5f593          	andi	a1,a1,255
    195c:	962a                	add	a2,a2,a0
    195e:	00c51463          	bne	a0,a2,1966 <memchr+0xe>
    1962:	4501                	li	a0,0
    1964:	8082                	ret
    1966:	211c                	lbu	a5,0(a0)
    1968:	feb78ee3          	beq	a5,a1,1964 <memchr+0xc>
    196c:	0505                	addi	a0,a0,1
    196e:	bfc5                	j	195e <memchr+0x6>

00001970 <__malloc_lock>:
    1970:	8082                	ret

00001972 <__malloc_unlock>:
    1972:	8082                	ret

00001974 <_read_r>:
    1974:	1141                	addi	sp,sp,-16
    1976:	c422                	sw	s0,8(sp)
    1978:	842a                	mv	s0,a0
    197a:	852e                	mv	a0,a1
    197c:	85b2                	mv	a1,a2
    197e:	8636                	mv	a2,a3
    1980:	8201a423          	sw	zero,-2008(gp) # 200000a8 <errno>
    1984:	c606                	sw	ra,12(sp)
    1986:	20a9                	jal	19d0 <_read>
    1988:	57fd                	li	a5,-1
    198a:	00f51763          	bne	a0,a5,1998 <_read_r+0x24>
    198e:	82818793          	addi	a5,gp,-2008 # 200000a8 <errno>
    1992:	439c                	lw	a5,0(a5)
    1994:	c391                	beqz	a5,1998 <_read_r+0x24>
    1996:	c01c                	sw	a5,0(s0)
    1998:	40b2                	lw	ra,12(sp)
    199a:	4422                	lw	s0,8(sp)
    199c:	0141                	addi	sp,sp,16
    199e:	8082                	ret

000019a0 <_close>:
    19a0:	05800793          	li	a5,88
    19a4:	82f1a423          	sw	a5,-2008(gp) # 200000a8 <errno>
    19a8:	557d                	li	a0,-1
    19aa:	8082                	ret

000019ac <_fstat>:
    19ac:	05800793          	li	a5,88
    19b0:	82f1a423          	sw	a5,-2008(gp) # 200000a8 <errno>
    19b4:	557d                	li	a0,-1
    19b6:	8082                	ret

000019b8 <_isatty>:
    19b8:	05800793          	li	a5,88
    19bc:	82f1a423          	sw	a5,-2008(gp) # 200000a8 <errno>
    19c0:	4501                	li	a0,0
    19c2:	8082                	ret

000019c4 <_lseek>:
    19c4:	05800793          	li	a5,88
    19c8:	82f1a423          	sw	a5,-2008(gp) # 200000a8 <errno>
    19cc:	557d                	li	a0,-1
    19ce:	8082                	ret

000019d0 <_read>:
    19d0:	05800793          	li	a5,88
    19d4:	82f1a423          	sw	a5,-2008(gp) # 200000a8 <errno>
    19d8:	557d                	li	a0,-1
    19da:	8082                	ret
    19dc:	74737953          	0x74737953
    19e0:	6d65                	lui	s10,0x19
    19e2:	3a6b6c43          	fmadd.d	fs8,fs6,ft6,ft7,unknown
    19e6:	6425                	lui	s0,0x9
    19e8:	0a0d                	addi	s4,s4,3
    19ea:	0000                	unimp
    19ec:	70696843          	fmadd.s	fa6,fs2,ft6,fa4,unknown
    19f0:	4449                	li	s0,18
    19f2:	253a                	lhu	a4,10(a0)
    19f4:	3830                	lbu	a2,19(s0)
    19f6:	0d78                	addi	a4,sp,668
    19f8:	000a                	c.slli	zero,0x2
    19fa:	0000                	unimp
    19fc:	6854                	flw	fa3,20(s0)
    19fe:	7369                	lui	t1,0xffffa
    1a00:	6920                	flw	fs0,80(a0)
    1a02:	72702073          	csrr	zero,0x727
    1a06:	6e69                	lui	t3,0x1a
    1a08:	6674                	flw	fa3,76(a2)
    1a0a:	6520                	flw	fs0,72(a0)
    1a0c:	6178                	flw	fa4,68(a0)
    1a0e:	706d                	c.lui	zero,0xffffb
    1a10:	656c                	flw	fa1,76(a0)
    1a12:	000d                	c.nop	3

00001a14 <__sf_fake_stderr>:
	...

00001a34 <__sf_fake_stdin>:
	...

00001a54 <__sf_fake_stdout>:
	...
    1a74:	2d23 2b30 0020 0000 6c68 004c 6665 4567     #-0+ ...hlL.efgE
    1a84:	4746 0000 3130 3332 3534 3736 3938 4241     FG..0123456789AB
    1a94:	4443 4645 0000 0000 3130 3332 3534 3736     CDEF....01234567
    1aa4:	3938 6261 6463 6665 0000 0000               89abcdef....
